---
triple:          'arm64-apple-darwin'
binary-path:     main
relocations:
  - { offsetInCU: 0x3F, offset: 0x3F, size: 0x8, addend: 0x0, symName: _E, symObjAddr: 0xC48, symBinAddr: 0x100018000, symSize: 0x0 }
  - { offsetInCU: 0x6E, offset: 0x6E, size: 0x8, addend: 0x0, symName: _P, symObjAddr: 0xD08, symBinAddr: 0x1000180C0, symSize: 0x0 }
  - { offsetInCU: 0x8F, offset: 0x8F, size: 0x8, addend: 0x0, symName: _S1, symObjAddr: 0xD88, symBinAddr: 0x100018140, symSize: 0x0 }
  - { offsetInCU: 0xB0, offset: 0xB0, size: 0x8, addend: 0x0, symName: _S2, symObjAddr: 0xE88, symBinAddr: 0x100018240, symSize: 0x0 }
  - { offsetInCU: 0xC5, offset: 0xC5, size: 0x8, addend: 0x0, symName: _S3, symObjAddr: 0xF88, symBinAddr: 0x100018340, symSize: 0x0 }
  - { offsetInCU: 0xDA, offset: 0xDA, size: 0x8, addend: 0x0, symName: _S4, symObjAddr: 0x1088, symBinAddr: 0x100018440, symSize: 0x0 }
  - { offsetInCU: 0xEF, offset: 0xEF, size: 0x8, addend: 0x0, symName: _S5, symObjAddr: 0x1188, symBinAddr: 0x100018540, symSize: 0x0 }
  - { offsetInCU: 0x104, offset: 0x104, size: 0x8, addend: 0x0, symName: _S6, symObjAddr: 0x1288, symBinAddr: 0x100018640, symSize: 0x0 }
  - { offsetInCU: 0x119, offset: 0x119, size: 0x8, addend: 0x0, symName: _S7, symObjAddr: 0x1388, symBinAddr: 0x100018740, symSize: 0x0 }
  - { offsetInCU: 0x12E, offset: 0x12E, size: 0x8, addend: 0x0, symName: _S8, symObjAddr: 0x1488, symBinAddr: 0x100018840, symSize: 0x0 }
  - { offsetInCU: 0x143, offset: 0x143, size: 0x8, addend: 0x0, symName: _SBOXMAP, symObjAddr: 0x1588, symBinAddr: 0x100018940, symSize: 0x0 }
  - { offsetInCU: 0x2E7D, offset: 0x2E7D, size: 0x8, addend: 0x0, symName: __ZNSt3__118__constexpr_strlenB8ue170006EPKc, symObjAddr: 0x798, symBinAddr: 0x100003DB4, symSize: 0x24 }
  - { offsetInCU: 0x2EA9, offset: 0x2EA9, size: 0x8, addend: 0x0, symName: __ZNSt3__130__libcpp_is_constant_evaluatedB8ue170006Ev, symObjAddr: 0x8D4, symBinAddr: 0x100003EF0, symSize: 0xC }
  - { offsetInCU: 0x2EF9, offset: 0x2EF9, size: 0x8, addend: 0x0, symName: __ZNSt3__112__to_addressB8ue170006IKcEEPT_S3_, symObjAddr: 0xA58, symBinAddr: 0x100004074, symSize: 0x14 }
  - { offsetInCU: 0x51FE, offset: 0x51FE, size: 0x8, addend: 0x0, symName: __Z9expansionNSt3__112basic_stringIcNS_11char_traitsIcEENS_9allocatorIcEEEE, symObjAddr: 0x0, symBinAddr: 0x10000361C, symSize: 0x110 }
  - { offsetInCU: 0x53B5, offset: 0x53B5, size: 0x8, addend: 0x0, symName: __ZNSt3__112basic_stringIcNS_11char_traitsIcEENS_9allocatorIcEEEC1B8ue170006ILi0EEEPKc, symObjAddr: 0x110, symBinAddr: 0x10000372C, symSize: 0x34 }
  - { offsetInCU: 0x53F2, offset: 0x53F2, size: 0x8, addend: 0x0, symName: __ZNSt3__112basic_stringIcNS_11char_traitsIcEENS_9allocatorIcEEEixB8ue170006Em, symObjAddr: 0x144, symBinAddr: 0x100003760, symSize: 0x30 }
  - { offsetInCU: 0x5425, offset: 0x5425, size: 0x8, addend: 0x0, symName: __ZNSt3__112basic_stringIcNS_11char_traitsIcEENS_9allocatorIcEEEpLB8ue170006Ec, symObjAddr: 0x174, symBinAddr: 0x100003790, symSize: 0x34 }
  - { offsetInCU: 0x5458, offset: 0x5458, size: 0x8, addend: 0x0, symName: __Z4pBoxNSt3__112basic_stringIcNS_11char_traitsIcEENS_9allocatorIcEEEE, symObjAddr: 0x1B4, symBinAddr: 0x1000037D0, symSize: 0x110 }
  - { offsetInCU: 0x54B0, offset: 0x54B0, size: 0x8, addend: 0x0, symName: __Z4sBoxNSt3__112basic_stringIcNS_11char_traitsIcEENS_9allocatorIcEEEE, symObjAddr: 0x2C4, symBinAddr: 0x1000038E0, symSize: 0x2A8 }
  - { offsetInCU: 0x554E, offset: 0x554E, size: 0x8, addend: 0x0, symName: __ZNKSt3__112basic_stringIcNS_11char_traitsIcEENS_9allocatorIcEEE6substrB8ue170006Emm, symObjAddr: 0x56C, symBinAddr: 0x100003B88, symSize: 0x68 }
  - { offsetInCU: 0x5590, offset: 0x5590, size: 0x8, addend: 0x0, symName: __ZNSt3__112basic_stringIcNS_11char_traitsIcEENS_9allocatorIcEEEpLB8ue170006ERKS5_, symObjAddr: 0x5D4, symBinAddr: 0x100003BF0, symSize: 0x2C }
  - { offsetInCU: 0x55C3, offset: 0x55C3, size: 0x8, addend: 0x0, symName: __ZNSt3__112basic_stringIcNS_11char_traitsIcEENS_9allocatorIcEEEC2B8ue170006ILi0EEEPKc, symObjAddr: 0x600, symBinAddr: 0x100003C1C, symSize: 0x58 }
  - { offsetInCU: 0x5605, offset: 0x5605, size: 0x8, addend: 0x0, symName: __ZNSt3__117__compressed_pairINS_12basic_stringIcNS_11char_traitsIcEENS_9allocatorIcEEE5__repES5_EC1B8ue170006INS_18__default_init_tagESA_EEOT_OT0_, symObjAddr: 0x658, symBinAddr: 0x100003C74, symSize: 0x3C }
  - { offsetInCU: 0x565B, offset: 0x565B, size: 0x8, addend: 0x0, symName: __ZNSt3__111char_traitsIcE6lengthB8ue170006EPKc, symObjAddr: 0x694, symBinAddr: 0x100003CB0, symSize: 0x48 }
  - { offsetInCU: 0x567D, offset: 0x567D, size: 0x8, addend: 0x0, symName: __ZNSt3__117__compressed_pairINS_12basic_stringIcNS_11char_traitsIcEENS_9allocatorIcEEE5__repES5_EC2B8ue170006INS_18__default_init_tagESA_EEOT_OT0_, symObjAddr: 0x6DC, symBinAddr: 0x100003CF8, symSize: 0x3C }
  - { offsetInCU: 0x56D3, offset: 0x56D3, size: 0x8, addend: 0x0, symName: __ZNSt3__122__compressed_pair_elemINS_12basic_stringIcNS_11char_traitsIcEENS_9allocatorIcEEE5__repELi0ELb0EEC2B8ue170006ENS_18__default_init_tagE, symObjAddr: 0x718, symBinAddr: 0x100003D34, symSize: 0x14 }
  - { offsetInCU: 0x5705, offset: 0x5705, size: 0x8, addend: 0x0, symName: __ZNSt3__122__compressed_pair_elemINS_9allocatorIcEELi1ELb1EEC2B8ue170006ENS_18__default_init_tagE, symObjAddr: 0x72C, symBinAddr: 0x100003D48, symSize: 0x2C }
  - { offsetInCU: 0x5737, offset: 0x5737, size: 0x8, addend: 0x0, symName: __ZNSt3__19allocatorIcEC2B8ue170006Ev, symObjAddr: 0x758, symBinAddr: 0x100003D74, symSize: 0x2C }
  - { offsetInCU: 0x575F, offset: 0x575F, size: 0x8, addend: 0x0, symName: __ZNSt3__116__non_trivial_ifILb1ENS_9allocatorIcEEEC2B8ue170006Ev, symObjAddr: 0x784, symBinAddr: 0x100003DA0, symSize: 0x14 }
  - { offsetInCU: 0x5787, offset: 0x5787, size: 0x8, addend: 0x0, symName: __ZNSt3__112basic_stringIcNS_11char_traitsIcEENS_9allocatorIcEEE13__get_pointerB8ue170006Ev, symObjAddr: 0x7BC, symBinAddr: 0x100003DD8, symSize: 0x54 }
  - { offsetInCU: 0x57AB, offset: 0x57AB, size: 0x8, addend: 0x0, symName: __ZNKSt3__112basic_stringIcNS_11char_traitsIcEENS_9allocatorIcEEE9__is_longB8ue170006Ev, symObjAddr: 0x810, symBinAddr: 0x100003E2C, symSize: 0x74 }
  - { offsetInCU: 0x57CF, offset: 0x57CF, size: 0x8, addend: 0x0, symName: __ZNSt3__112basic_stringIcNS_11char_traitsIcEENS_9allocatorIcEEE18__get_long_pointerB8ue170006Ev, symObjAddr: 0x884, symBinAddr: 0x100003EA0, symSize: 0x28 }
  - { offsetInCU: 0x57F3, offset: 0x57F3, size: 0x8, addend: 0x0, symName: __ZNSt3__112basic_stringIcNS_11char_traitsIcEENS_9allocatorIcEEE19__get_short_pointerB8ue170006Ev, symObjAddr: 0x8AC, symBinAddr: 0x100003EC8, symSize: 0x28 }
  - { offsetInCU: 0x5817, offset: 0x5817, size: 0x8, addend: 0x0, symName: __ZNKSt3__117__compressed_pairINS_12basic_stringIcNS_11char_traitsIcEENS_9allocatorIcEEE5__repES5_E5firstB8ue170006Ev, symObjAddr: 0x8E0, symBinAddr: 0x100003EFC, symSize: 0x24 }
  - { offsetInCU: 0x583B, offset: 0x583B, size: 0x8, addend: 0x0, symName: __ZNKSt3__122__compressed_pair_elemINS_12basic_stringIcNS_11char_traitsIcEENS_9allocatorIcEEE5__repELi0ELb0EE5__getB8ue170006Ev, symObjAddr: 0x904, symBinAddr: 0x100003F20, symSize: 0x14 }
  - { offsetInCU: 0x585F, offset: 0x585F, size: 0x8, addend: 0x0, symName: __ZNSt3__117__compressed_pairINS_12basic_stringIcNS_11char_traitsIcEENS_9allocatorIcEEE5__repES5_E5firstB8ue170006Ev, symObjAddr: 0x918, symBinAddr: 0x100003F34, symSize: 0x24 }
  - { offsetInCU: 0x5883, offset: 0x5883, size: 0x8, addend: 0x0, symName: __ZNSt3__122__compressed_pair_elemINS_12basic_stringIcNS_11char_traitsIcEENS_9allocatorIcEEE5__repELi0ELb0EE5__getB8ue170006Ev, symObjAddr: 0x93C, symBinAddr: 0x100003F58, symSize: 0x14 }
  - { offsetInCU: 0x58A7, offset: 0x58A7, size: 0x8, addend: 0x0, symName: __ZNSt3__114pointer_traitsIPcE10pointer_toB8ue170006ERc, symObjAddr: 0x950, symBinAddr: 0x100003F6C, symSize: 0x14 }
  - { offsetInCU: 0x58C9, offset: 0x58C9, size: 0x8, addend: 0x0, symName: __ZNSt3__19allocatorIcEC1B8ue170006Ev, symObjAddr: 0x964, symBinAddr: 0x100003F80, symSize: 0x2C }
  - { offsetInCU: 0x58F1, offset: 0x58F1, size: 0x8, addend: 0x0, symName: __ZNSt3__112basic_stringIcNS_11char_traitsIcEENS_9allocatorIcEEE6appendB8ue170006ERKS5_, symObjAddr: 0x990, symBinAddr: 0x100003FAC, symSize: 0x4C }
  - { offsetInCU: 0x5924, offset: 0x5924, size: 0x8, addend: 0x0, symName: __ZNKSt3__112basic_stringIcNS_11char_traitsIcEENS_9allocatorIcEEE4dataB8ue170006Ev, symObjAddr: 0x9DC, symBinAddr: 0x100003FF8, symSize: 0x28 }
  - { offsetInCU: 0x5948, offset: 0x5948, size: 0x8, addend: 0x0, symName: __ZNKSt3__112basic_stringIcNS_11char_traitsIcEENS_9allocatorIcEEE4sizeB8ue170006Ev, symObjAddr: 0xA04, symBinAddr: 0x100004020, symSize: 0x54 }
  - { offsetInCU: 0x596C, offset: 0x596C, size: 0x8, addend: 0x0, symName: __ZNKSt3__112basic_stringIcNS_11char_traitsIcEENS_9allocatorIcEEE13__get_pointerB8ue170006Ev, symObjAddr: 0xA6C, symBinAddr: 0x100004088, symSize: 0x54 }
  - { offsetInCU: 0x5990, offset: 0x5990, size: 0x8, addend: 0x0, symName: __ZNKSt3__112basic_stringIcNS_11char_traitsIcEENS_9allocatorIcEEE18__get_long_pointerB8ue170006Ev, symObjAddr: 0xAC0, symBinAddr: 0x1000040DC, symSize: 0x28 }
  - { offsetInCU: 0x59B4, offset: 0x59B4, size: 0x8, addend: 0x0, symName: __ZNKSt3__112basic_stringIcNS_11char_traitsIcEENS_9allocatorIcEEE19__get_short_pointerB8ue170006Ev, symObjAddr: 0xAE8, symBinAddr: 0x100004104, symSize: 0x28 }
  - { offsetInCU: 0x59D8, offset: 0x59D8, size: 0x8, addend: 0x0, symName: __ZNSt3__114pointer_traitsIPKcE10pointer_toB8ue170006ERS1_, symObjAddr: 0xB10, symBinAddr: 0x10000412C, symSize: 0x14 }
  - { offsetInCU: 0x59FA, offset: 0x59FA, size: 0x8, addend: 0x0, symName: __ZNKSt3__112basic_stringIcNS_11char_traitsIcEENS_9allocatorIcEEE15__get_long_sizeB8ue170006Ev, symObjAddr: 0xB24, symBinAddr: 0x100004140, symSize: 0x28 }
  - { offsetInCU: 0x5A1E, offset: 0x5A1E, size: 0x8, addend: 0x0, symName: __ZNKSt3__112basic_stringIcNS_11char_traitsIcEENS_9allocatorIcEEE16__get_short_sizeB8ue170006Ev, symObjAddr: 0xB4C, symBinAddr: 0x100004168, symSize: 0x34 }
  - { offsetInCU: 0x6371, offset: 0xBDD1, size: 0x8, addend: 0x0, symName: __ZNSt3__113__fill_n_trueB8ue170006INS_8__bitsetILm1ELm8EEEEEvNS_14__bit_iteratorIT_Lb0EXLi0EEEENS4_9size_typeE, symObjAddr: 0x5A34, symBinAddr: 0x100009518, symSize: 0x160 }
  - { offsetInCU: 0x6436, offset: 0xBE96, size: 0x8, addend: 0x0, symName: __ZNSt3__114__fill_n_falseB8ue170006INS_8__bitsetILm1ELm8EEEEEvNS_14__bit_iteratorIT_Lb0EXLi0EEEENS4_9size_typeE, symObjAddr: 0x5B94, symBinAddr: 0x100009678, symSize: 0x15C }
  - { offsetInCU: 0x64FB, offset: 0xBF5B, size: 0x8, addend: 0x0, symName: __ZNSt3__113__fill_n_trueB8ue170006INS_8__bitsetILm1ELm64EEEEEvNS_14__bit_iteratorIT_Lb0EXLi0EEEENS4_9size_typeE, symObjAddr: 0x650C, symBinAddr: 0x100009FF0, symSize: 0x160 }
  - { offsetInCU: 0x65C0, offset: 0xC020, size: 0x8, addend: 0x0, symName: __ZNSt3__114__fill_n_falseB8ue170006INS_8__bitsetILm1ELm64EEEEEvNS_14__bit_iteratorIT_Lb0EXLi0EEEENS4_9size_typeE, symObjAddr: 0x666C, symBinAddr: 0x10000A150, symSize: 0x15C }
  - { offsetInCU: 0x7874, offset: 0xD2D4, size: 0x8, addend: 0x0, symName: __ZNSt3__113__fill_n_trueB8ue170006INS_8__bitsetILm1ELm48EEEEEvNS_14__bit_iteratorIT_Lb0EXLi0EEEENS4_9size_typeE, symObjAddr: 0x7474, symBinAddr: 0x10000AF58, symSize: 0x160 }
  - { offsetInCU: 0x7939, offset: 0xD399, size: 0x8, addend: 0x0, symName: __ZNSt3__114__fill_n_falseB8ue170006INS_8__bitsetILm1ELm48EEEEEvNS_14__bit_iteratorIT_Lb0EXLi0EEEENS4_9size_typeE, symObjAddr: 0x75D4, symBinAddr: 0x10000B0B8, symSize: 0x15C }
  - { offsetInCU: 0x7FB0, offset: 0xDA10, size: 0x8, addend: 0x0, symName: __ZNSt3__113__fill_n_trueB8ue170006INS_8__bitsetILm1ELm32EEEEEvNS_14__bit_iteratorIT_Lb0EXLi0EEEENS4_9size_typeE, symObjAddr: 0x800C, symBinAddr: 0x10000BAF0, symSize: 0x160 }
  - { offsetInCU: 0x8075, offset: 0xDAD5, size: 0x8, addend: 0x0, symName: __ZNSt3__114__fill_n_falseB8ue170006INS_8__bitsetILm1ELm32EEEEEvNS_14__bit_iteratorIT_Lb0EXLi0EEEENS4_9size_typeE, symObjAddr: 0x816C, symBinAddr: 0x10000BC50, symSize: 0x15C }
  - { offsetInCU: 0x813A, offset: 0xDB9A, size: 0x8, addend: 0x0, symName: __ZNSt3__124__put_character_sequenceB8ue170006IcNS_11char_traitsIcEEEERNS_13basic_ostreamIT_T0_EES7_PKS4_m, symObjAddr: 0x8A84, symBinAddr: 0x10000C568, symSize: 0x1F4 }
  - { offsetInCU: 0x8A08, offset: 0xE468, size: 0x8, addend: 0x0, symName: __ZNSt3__113__fill_n_trueB8ue170006INS_8__bitsetILm1ELm4EEEEEvNS_14__bit_iteratorIT_Lb0EXLi0EEEENS4_9size_typeE, symObjAddr: 0x97B4, symBinAddr: 0x10000D298, symSize: 0x160 }
  - { offsetInCU: 0x8ACD, offset: 0xE52D, size: 0x8, addend: 0x0, symName: __ZNSt3__114__fill_n_falseB8ue170006INS_8__bitsetILm1ELm4EEEEEvNS_14__bit_iteratorIT_Lb0EXLi0EEEENS4_9size_typeE, symObjAddr: 0x9914, symBinAddr: 0x10000D3F8, symSize: 0x15C }
  - { offsetInCU: 0xAC87, offset: 0x106E7, size: 0x8, addend: 0x0, symName: __ZNSt3__1lsB8ue170006INS_11char_traitsIcEEEERNS_13basic_ostreamIcT_EES6_PKc, symObjAddr: 0x20B8, symBinAddr: 0x1000060C8, symSize: 0x48 }
  - { offsetInCU: 0xACCE, offset: 0x1072E, size: 0x8, addend: 0x0, symName: __ZNSt3__1lsB8ue170006IcNS_11char_traitsIcEENS_9allocatorIcEEEERNS_13basic_ostreamIT_T0_EES9_RKNS_12basic_stringIS6_S7_T1_EE, symObjAddr: 0x2100, symBinAddr: 0x100006110, symSize: 0x4C }
  - { offsetInCU: 0xAD32, offset: 0x10792, size: 0x8, addend: 0x0, symName: __ZNSt3__117__libcpp_allocateB8ue170006Emm, symObjAddr: 0x2D28, symBinAddr: 0x100006BFC, symSize: 0x28 }
  - { offsetInCU: 0xAD70, offset: 0x107D0, size: 0x8, addend: 0x0, symName: __ZNSt3__121__libcpp_operator_newB8ue170006IJmEEEPvDpT_, symObjAddr: 0x2D64, symBinAddr: 0x100006C38, symSize: 0x24 }
  - { offsetInCU: 0xADAA, offset: 0x1080A, size: 0x8, addend: 0x0, symName: __ZNSt3__112__to_addressB8ue170006INS_12basic_stringIcNS_11char_traitsIcEENS_9allocatorIcEEEEEEPT_S8_, symObjAddr: 0x344C, symBinAddr: 0x100007160, symSize: 0x14 }
  - { offsetInCU: 0xADDF, offset: 0x1083F, size: 0x8, addend: 0x0, symName: __ZNSt3__119__libcpp_deallocateB8ue170006EPvmm, symObjAddr: 0x3544, symBinAddr: 0x100007258, symSize: 0x30 }
  - { offsetInCU: 0xAE27, offset: 0x10887, size: 0x8, addend: 0x0, symName: __ZNSt3__127__do_deallocate_handle_sizeB8ue170006IJEEEvPvmDpT_, symObjAddr: 0x3574, symBinAddr: 0x100007288, symSize: 0x28 }
  - { offsetInCU: 0xAE66, offset: 0x108C6, size: 0x8, addend: 0x0, symName: __ZNSt3__124__libcpp_operator_deleteB8ue170006IJPvEEEvDpT_, symObjAddr: 0x359C, symBinAddr: 0x1000072B0, symSize: 0x24 }
  - { offsetInCU: 0xAE9B, offset: 0x108FB, size: 0x8, addend: 0x0, symName: __ZNSt3__13maxB8ue170006ImEERKT_S3_S3_, symObjAddr: 0x4098, symBinAddr: 0x100007C6C, symSize: 0x2C }
  - { offsetInCU: 0xAEDE, offset: 0x1093E, size: 0x8, addend: 0x0, symName: __ZNSt3__13minB8ue170006ImEERKT_S3_S3_, symObjAddr: 0x40C4, symBinAddr: 0x100007C98, symSize: 0x2C }
  - { offsetInCU: 0xB12C, offset: 0x10B8C, size: 0x8, addend: 0x0, symName: __ZNSt3__13minB8ue170006ImNS_6__lessIvvEEEERKT_S5_S5_T0_, symObjAddr: 0x4150, symBinAddr: 0x100007D24, symSize: 0x54 }
  - { offsetInCU: 0xB1CD, offset: 0x10C2D, size: 0x8, addend: 0x0, symName: __ZNSt3__120__throw_length_errorB8ue170006EPKc, symObjAddr: 0x4230, symBinAddr: 0x100007E04, symSize: 0x64 }
  - { offsetInCU: 0xB1F8, offset: 0x10C58, size: 0x8, addend: 0x0, symName: __ZNSt3__13maxB8ue170006ImNS_6__lessIvvEEEERKT_S5_S5_T0_, symObjAddr: 0x4314, symBinAddr: 0x100007EE8, symSize: 0x54 }
  - { offsetInCU: 0xB252, offset: 0x10CB2, size: 0x8, addend: 0x0, symName: __ZNSt3__119__allocate_at_leastB8ue170006INS_9allocatorINS_12basic_stringIcNS_11char_traitsIcEENS1_IcEEEEEEEENS_19__allocation_resultINS_16allocator_traitsIT_E7pointerEEERSA_m, symObjAddr: 0x4484, symBinAddr: 0x100008058, symSize: 0x40 }
  - { offsetInCU: 0xB295, offset: 0x10CF5, size: 0x8, addend: 0x0, symName: __ZNSt3__142__uninitialized_allocator_move_if_noexceptB8ue170006INS_9allocatorINS_12basic_stringIcNS_11char_traitsIcEENS1_IcEEEEEENS_16reverse_iteratorIPS6_EESA_SA_EET2_RT_T0_T1_SB_, symObjAddr: 0x466C, symBinAddr: 0x100008240, symSize: 0x134 }
  - { offsetInCU: 0xB336, offset: 0x10D96, size: 0x8, addend: 0x0, symName: __ZNSt3__14swapB8ue170006IPNS_12basic_stringIcNS_11char_traitsIcEENS_9allocatorIcEEEEEEvRT_S9_, symObjAddr: 0x47EC, symBinAddr: 0x1000083C0, symSize: 0x3C }
  - { offsetInCU: 0xB387, offset: 0x10DE7, size: 0x8, addend: 0x0, symName: __ZNSt3__122__make_exception_guardB8ue170006INS_29_AllocatorDestroyRangeReverseINS_9allocatorINS_12basic_stringIcNS_11char_traitsIcEENS2_IcEEEEEENS_16reverse_iteratorIPS7_EEEEEENS_28__exception_guard_exceptionsIT_EESE_, symObjAddr: 0x48F0, symBinAddr: 0x1000084C4, symSize: 0x4C }
  - { offsetInCU: 0xB3BD, offset: 0x10E1D, size: 0x8, addend: 0x0, symName: __ZNSt3__1neB8ue170006IPNS_12basic_stringIcNS_11char_traitsIcEENS_9allocatorIcEEEES7_EEbRKNS_16reverse_iteratorIT_EERKNS8_IT0_EE, symObjAddr: 0x4980, symBinAddr: 0x100008554, symSize: 0x48 }
  - { offsetInCU: 0xB409, offset: 0x10E69, size: 0x8, addend: 0x0, symName: __ZNSt3__112__to_addressB8ue170006INS_16reverse_iteratorIPNS_12basic_stringIcNS_11char_traitsIcEENS_9allocatorIcEEEEEEvEEu7__decayIDTclsr19__to_address_helperIT_EE6__callclsr3stdE7declvalIRKSA_EEEEESC_, symObjAddr: 0x49C8, symBinAddr: 0x10000859C, symSize: 0x24 }
  - { offsetInCU: 0xB469, offset: 0x10EC9, size: 0x8, addend: 0x0, symName: __ZNSt3__119__allocator_destroyB8ue170006INS_9allocatorINS_12basic_stringIcNS_11char_traitsIcEENS1_IcEEEEEENS_16reverse_iteratorINS8_IPS6_EEEESB_EEvRT_T0_T1_, symObjAddr: 0x4C84, symBinAddr: 0x100008858, symSize: 0x70 }
  - { offsetInCU: 0xB4CE, offset: 0x10F2E, size: 0x8, addend: 0x0, symName: __ZNSt3__1neB8ue170006INS_16reverse_iteratorIPNS_12basic_stringIcNS_11char_traitsIcEENS_9allocatorIcEEEEEES9_EEbRKNS1_IT_EERKNS1_IT0_EE, symObjAddr: 0x4D30, symBinAddr: 0x100008904, symSize: 0x60 }
  - { offsetInCU: 0xB51A, offset: 0x10F7A, size: 0x8, addend: 0x0, symName: __ZNSt3__112__to_addressB8ue170006INS_16reverse_iteratorINS1_IPNS_12basic_stringIcNS_11char_traitsIcEENS_9allocatorIcEEEEEEEEvEEu7__decayIDTclsr19__to_address_helperIT_EE6__callclsr3stdE7declvalIRKSB_EEEEESD_, symObjAddr: 0x4D90, symBinAddr: 0x100008964, symSize: 0x24 }
  - { offsetInCU: 0xB57A, offset: 0x10FDA, size: 0x8, addend: 0x0, symName: __ZNSt3__120__throw_out_of_rangeB8ue170006EPKc, symObjAddr: 0x52E8, symBinAddr: 0x100008DCC, symSize: 0x64 }
  - { offsetInCU: 0xB5A5, offset: 0x11005, size: 0x8, addend: 0x0, symName: __ZNSt3__124__throw_invalid_argumentB8ue170006EPKc, symObjAddr: 0x5624, symBinAddr: 0x100009108, symSize: 0x64 }
  - { offsetInCU: 0xB5CE, offset: 0x1102E, size: 0x8, addend: 0x0, symName: __ZNSt3__14fillB8ue170006INS_8__bitsetILm1ELm8EEEEEvNS_14__bit_iteratorIT_Lb0EXLi0EEEES5_b, symObjAddr: 0x5730, symBinAddr: 0x100009214, symSize: 0x6C }
  - { offsetInCU: 0xB621, offset: 0x11081, size: 0x8, addend: 0x0, symName: __ZNSt3__16fill_nB8ue170006INS_8__bitsetILm1ELm8EEEEEvNS_14__bit_iteratorIT_Lb0EXLi0EEEENS4_9size_typeEb, symObjAddr: 0x5924, symBinAddr: 0x100009408, symSize: 0x94 }
  - { offsetInCU: 0xB673, offset: 0x110D3, size: 0x8, addend: 0x0, symName: __ZNSt3__1miB8ue170006ERKNS_14__bit_iteratorINS_8__bitsetILm1ELm8EEELb0ELm0EEES5_, symObjAddr: 0x59EC, symBinAddr: 0x1000094D0, symSize: 0x48 }
  - { offsetInCU: 0xB6B1, offset: 0x11111, size: 0x8, addend: 0x0, symName: __ZNSt3__16fill_nB8ue170006IPmmmEET_S2_T0_RKT1_, symObjAddr: 0x5CF0, symBinAddr: 0x1000097D4, symSize: 0x44 }
  - { offsetInCU: 0xB714, offset: 0x11174, size: 0x8, addend: 0x0, symName: __ZNSt3__112__to_addressB8ue170006ImEEPT_S2_, symObjAddr: 0x5D34, symBinAddr: 0x100009818, symSize: 0x14 }
  - { offsetInCU: 0xB749, offset: 0x111A9, size: 0x8, addend: 0x0, symName: __ZNSt3__18__fill_nB8ue170006IPmmmEET_S2_T0_RKT1_, symObjAddr: 0x5D48, symBinAddr: 0x10000982C, symSize: 0x64 }
  - { offsetInCU: 0xB7AC, offset: 0x1120C, size: 0x8, addend: 0x0, symName: __ZNSt3__121__convert_to_integralB8ue170006Em, symObjAddr: 0x5DAC, symBinAddr: 0x100009890, symSize: 0x14 }
  - { offsetInCU: 0xB7D8, offset: 0x11238, size: 0x8, addend: 0x0, symName: __ZNSt3__16fill_nB8ue170006IPmmiEET_S2_T0_RKT1_, symObjAddr: 0x5DC0, symBinAddr: 0x1000098A4, symSize: 0x44 }
  - { offsetInCU: 0xB83B, offset: 0x1129B, size: 0x8, addend: 0x0, symName: __ZNSt3__18__fill_nB8ue170006IPmmiEET_S2_T0_RKT1_, symObjAddr: 0x5E04, symBinAddr: 0x1000098E8, symSize: 0x64 }
  - { offsetInCU: 0xB89E, offset: 0x112FE, size: 0x8, addend: 0x0, symName: __ZNSt3__14fillB8ue170006INS_8__bitsetILm1ELm64EEEEEvNS_14__bit_iteratorIT_Lb0EXLi0EEEES5_b, symObjAddr: 0x6288, symBinAddr: 0x100009D6C, symSize: 0x6C }
  - { offsetInCU: 0xB8F1, offset: 0x11351, size: 0x8, addend: 0x0, symName: __ZNSt3__16fill_nB8ue170006INS_8__bitsetILm1ELm64EEEEEvNS_14__bit_iteratorIT_Lb0EXLi0EEEENS4_9size_typeEb, symObjAddr: 0x63FC, symBinAddr: 0x100009EE0, symSize: 0x94 }
  - { offsetInCU: 0xB943, offset: 0x113A3, size: 0x8, addend: 0x0, symName: __ZNSt3__1miB8ue170006ERKNS_14__bit_iteratorINS_8__bitsetILm1ELm64EEELb0ELm0EEES5_, symObjAddr: 0x64C4, symBinAddr: 0x100009FA8, symSize: 0x48 }
  - { offsetInCU: 0xB981, offset: 0x113E1, size: 0x8, addend: 0x0, symName: __ZNSt3__14fillB8ue170006INS_8__bitsetILm1ELm48EEEEEvNS_14__bit_iteratorIT_Lb0EXLi0EEEES5_b, symObjAddr: 0x71F0, symBinAddr: 0x10000ACD4, symSize: 0x6C }
  - { offsetInCU: 0xB9D4, offset: 0x11434, size: 0x8, addend: 0x0, symName: __ZNSt3__16fill_nB8ue170006INS_8__bitsetILm1ELm48EEEEEvNS_14__bit_iteratorIT_Lb0EXLi0EEEENS4_9size_typeEb, symObjAddr: 0x7364, symBinAddr: 0x10000AE48, symSize: 0x94 }
  - { offsetInCU: 0xBA26, offset: 0x11486, size: 0x8, addend: 0x0, symName: __ZNSt3__1miB8ue170006ERKNS_14__bit_iteratorINS_8__bitsetILm1ELm48EEELb0ELm0EEES5_, symObjAddr: 0x742C, symBinAddr: 0x10000AF10, symSize: 0x48 }
  - { offsetInCU: 0xBA64, offset: 0x114C4, size: 0x8, addend: 0x0, symName: __ZNSt3__14fillB8ue170006INS_8__bitsetILm1ELm32EEEEEvNS_14__bit_iteratorIT_Lb0EXLi0EEEES5_b, symObjAddr: 0x7D88, symBinAddr: 0x10000B86C, symSize: 0x6C }
  - { offsetInCU: 0xBAB7, offset: 0x11517, size: 0x8, addend: 0x0, symName: __ZNSt3__16fill_nB8ue170006INS_8__bitsetILm1ELm32EEEEEvNS_14__bit_iteratorIT_Lb0EXLi0EEEENS4_9size_typeEb, symObjAddr: 0x7EFC, symBinAddr: 0x10000B9E0, symSize: 0x94 }
  - { offsetInCU: 0xBB09, offset: 0x11569, size: 0x8, addend: 0x0, symName: __ZNSt3__1miB8ue170006ERKNS_14__bit_iteratorINS_8__bitsetILm1ELm32EEELb0ELm0EEES5_, symObjAddr: 0x7FC4, symBinAddr: 0x10000BAA8, symSize: 0x48 }
  - { offsetInCU: 0xBB47, offset: 0x115A7, size: 0x8, addend: 0x0, symName: __ZNSt3__116__pad_and_outputB8ue170006IcNS_11char_traitsIcEEEENS_19ostreambuf_iteratorIT_T0_EES6_PKS4_S8_S8_RNS_8ios_baseES4_, symObjAddr: 0x8C94, symBinAddr: 0x10000C778, symSize: 0x248 }
  - { offsetInCU: 0xBC17, offset: 0x11677, size: 0x8, addend: 0x0, symName: __ZNSt3__19use_facetB8ue170006INS_5ctypeIcEEEERKT_RKNS_6localeE, symObjAddr: 0x9188, symBinAddr: 0x10000CC6C, symSize: 0x2C }
  - { offsetInCU: 0xC0E4, offset: 0x11B44, size: 0x8, addend: 0x0, symName: __ZNSt3__14fillB8ue170006INS_8__bitsetILm1ELm4EEEEEvNS_14__bit_iteratorIT_Lb0EXLi0EEEES5_b, symObjAddr: 0x9530, symBinAddr: 0x10000D014, symSize: 0x6C }
  - { offsetInCU: 0xC137, offset: 0x11B97, size: 0x8, addend: 0x0, symName: __ZNSt3__16fill_nB8ue170006INS_8__bitsetILm1ELm4EEEEEvNS_14__bit_iteratorIT_Lb0EXLi0EEEENS4_9size_typeEb, symObjAddr: 0x96A4, symBinAddr: 0x10000D188, symSize: 0x94 }
  - { offsetInCU: 0xC189, offset: 0x11BE9, size: 0x8, addend: 0x0, symName: __ZNSt3__1miB8ue170006ERKNS_14__bit_iteratorINS_8__bitsetILm1ELm4EEELb0ELm0EEES5_, symObjAddr: 0x976C, symBinAddr: 0x10000D250, symSize: 0x48 }
  - { offsetInCU: 0xC460, offset: 0x11EC0, size: 0x8, addend: 0x0, symName: __ZSt28__throw_bad_array_new_lengthB8ue170006v, symObjAddr: 0x2CF4, symBinAddr: 0x100006BC8, symSize: 0x34 }
  - { offsetInCU: 0xC9E1, offset: 0x12441, size: 0x8, addend: 0x0, symName: __ZNSt3__16vectorINS_12basic_stringIcNS_11char_traitsIcEENS_9allocatorIcEEEENS4_IS6_EEE26__swap_out_circular_bufferERNS_14__split_bufferIS6_RS7_EE, symObjAddr: 0x3ECC, symBinAddr: 0x100007AA0, symSize: 0x110 }
  - { offsetInCU: 0xEA5C, offset: 0x144BC, size: 0x8, addend: 0x0, symName: __Z11hexToBinaryNSt3__112basic_stringIcNS_11char_traitsIcEENS_9allocatorIcEEEE, symObjAddr: 0x0, symBinAddr: 0x10000419C, symSize: 0x330 }
  - { offsetInCU: 0xEAAD, offset: 0x1450D, size: 0x8, addend: 0x0, symName: __ZNSt3__112basic_stringIcNS_11char_traitsIcEENS_9allocatorIcEEEC1B8ue170006Ev, symObjAddr: 0x40C, symBinAddr: 0x1000045A8, symSize: 0x2C }
  - { offsetInCU: 0xEAD5, offset: 0x14535, size: 0x8, addend: 0x0, symName: __ZNSt3__112basic_stringIcNS_11char_traitsIcEENS_9allocatorIcEEEpLB8ue170006EPKc, symObjAddr: 0x4BC, symBinAddr: 0x1000045D4, symSize: 0x2C }
  - { offsetInCU: 0xEB07, offset: 0x14567, size: 0x8, addend: 0x0, symName: __Z13asciiToBinaryNSt3__16vectorINS_12basic_stringIcNS_11char_traitsIcEENS_9allocatorIcEEEENS4_IS6_EEEE, symObjAddr: 0x4F4, symBinAddr: 0x100004600, symSize: 0x1CC }
  - { offsetInCU: 0xEB81, offset: 0x145E1, size: 0x8, addend: 0x0, symName: __ZNSt3__16vectorINS_12basic_stringIcNS_11char_traitsIcEENS_9allocatorIcEEEENS4_IS6_EEEC1B8ue170006Ev, symObjAddr: 0x6C0, symBinAddr: 0x1000047CC, symSize: 0x2C }
  - { offsetInCU: 0xEBA9, offset: 0x14609, size: 0x8, addend: 0x0, symName: __ZNKSt3__16vectorINS_12basic_stringIcNS_11char_traitsIcEENS_9allocatorIcEEEENS4_IS6_EEE4sizeB8ue170006Ev, symObjAddr: 0x6EC, symBinAddr: 0x1000047F8, symSize: 0x28 }
  - { offsetInCU: 0xEBCD, offset: 0x1462D, size: 0x8, addend: 0x0, symName: __ZNSt3__16vectorINS_12basic_stringIcNS_11char_traitsIcEENS_9allocatorIcEEEENS4_IS6_EEEixB8ue170006Em, symObjAddr: 0x714, symBinAddr: 0x100004820, symSize: 0x2C }
  - { offsetInCU: 0xEC03, offset: 0x14663, size: 0x8, addend: 0x0, symName: __ZNSt3__16bitsetILm8EEC1B8ue170006Ey, symObjAddr: 0x740, symBinAddr: 0x10000484C, symSize: 0x34 }
  - { offsetInCU: 0xEC39, offset: 0x14699, size: 0x8, addend: 0x0, symName: __ZNKSt3__16bitsetILm8EE9to_stringB8ue170006Ecc, symObjAddr: 0x774, symBinAddr: 0x100004880, symSize: 0x3C }
  - { offsetInCU: 0xEC7E, offset: 0x146DE, size: 0x8, addend: 0x0, symName: __ZNSt3__16vectorINS_12basic_stringIcNS_11char_traitsIcEENS_9allocatorIcEEEENS4_IS6_EEE9push_backB8ue170006ERKS6_, symObjAddr: 0x7DC, symBinAddr: 0x1000048BC, symSize: 0x6C }
  - { offsetInCU: 0xECB5, offset: 0x14715, size: 0x8, addend: 0x0, symName: __ZNSt3__16vectorINS_12basic_stringIcNS_11char_traitsIcEENS_9allocatorIcEEEENS4_IS6_EEED1B8ue170006Ev, symObjAddr: 0x848, symBinAddr: 0x100004928, symSize: 0x2C }
  - { offsetInCU: 0xECDC, offset: 0x1473C, size: 0x8, addend: 0x0, symName: __Z13binaryToAsciiNSt3__112basic_stringIcNS_11char_traitsIcEENS_9allocatorIcEEEE, symObjAddr: 0x874, symBinAddr: 0x100004954, symSize: 0x474 }
  - { offsetInCU: 0xEDAC, offset: 0x1480C, size: 0x8, addend: 0x0, symName: __ZNSt3__16bitsetILm8EEC1B8ue170006IcNS_11char_traitsIcEENS_9allocatorIcEEEERKNS_12basic_stringIT_T0_T1_EENSB_9size_typeESE_S8_S8_, symObjAddr: 0xD84, symBinAddr: 0x100004DC8, symSize: 0x54 }
  - { offsetInCU: 0xEE39, offset: 0x14899, size: 0x8, addend: 0x0, symName: __ZNKSt3__16bitsetILm8EE8to_ulongB8ue170006Ev, symObjAddr: 0xDD8, symBinAddr: 0x100004E1C, symSize: 0x24 }
  - { offsetInCU: 0xEE60, offset: 0x148C0, size: 0x8, addend: 0x0, symName: __Z8binToDecNSt3__112basic_stringIcNS_11char_traitsIcEENS_9allocatorIcEEEE, symObjAddr: 0xE30, symBinAddr: 0x100004E40, symSize: 0x54 }
  - { offsetInCU: 0xEE9C, offset: 0x148FC, size: 0x8, addend: 0x0, symName: __ZNSt3__16bitsetILm64EEC1B8ue170006IcNS_11char_traitsIcEENS_9allocatorIcEEEERKNS_12basic_stringIT_T0_T1_EENSB_9size_typeESE_S8_S8_, symObjAddr: 0xE84, symBinAddr: 0x100004E94, symSize: 0x54 }
  - { offsetInCU: 0xEF29, offset: 0x14989, size: 0x8, addend: 0x0, symName: __ZNKSt3__16bitsetILm64EE8to_ulongB8ue170006Ev, symObjAddr: 0xED8, symBinAddr: 0x100004EE8, symSize: 0x24 }
  - { offsetInCU: 0xEF50, offset: 0x149B0, size: 0x8, addend: 0x0, symName: __Z8decToBini, symObjAddr: 0xEFC, symBinAddr: 0x100004F0C, symSize: 0x88 }
  - { offsetInCU: 0xEF8C, offset: 0x149EC, size: 0x8, addend: 0x0, symName: __ZNSt3__16bitsetILm4EEC1B8ue170006Ey, symObjAddr: 0xF84, symBinAddr: 0x100004F94, symSize: 0x34 }
  - { offsetInCU: 0xEFC2, offset: 0x14A22, size: 0x8, addend: 0x0, symName: __ZNKSt3__16bitsetILm4EE9to_stringB8ue170006Ecc, symObjAddr: 0xFB8, symBinAddr: 0x100004FC8, symSize: 0x3C }
  - { offsetInCU: 0xF007, offset: 0x14A67, size: 0x8, addend: 0x0, symName: __Z8readfileNSt3__112basic_stringIcNS_11char_traitsIcEENS_9allocatorIcEEEE, symObjAddr: 0xFF4, symBinAddr: 0x100005004, symSize: 0x164 }
  - { offsetInCU: 0xF105, offset: 0x14B65, size: 0x8, addend: 0x0, symName: __ZNSt3__114basic_ifstreamIcNS_11char_traitsIcEEEC1ERKNS_12basic_stringIcS2_NS_9allocatorIcEEEEj, symObjAddr: 0x1158, symBinAddr: 0x100005168, symSize: 0x17C }
  - { offsetInCU: 0xF1AD, offset: 0x14C0D, size: 0x8, addend: 0x0, symName: __ZNSt3__118basic_stringstreamIcNS_11char_traitsIcEENS_9allocatorIcEEEC1B8ue170006Ev, symObjAddr: 0x12D4, symBinAddr: 0x1000052E4, symSize: 0x110 }
  - { offsetInCU: 0xF1D5, offset: 0x14C35, size: 0x8, addend: 0x0, symName: __ZNKSt3__114basic_ifstreamIcNS_11char_traitsIcEEE5rdbufEv, symObjAddr: 0x13E4, symBinAddr: 0x1000053F4, symSize: 0x18 }
  - { offsetInCU: 0xF1FC, offset: 0x14C5C, size: 0x8, addend: 0x0, symName: __ZNKSt3__118basic_stringstreamIcNS_11char_traitsIcEENS_9allocatorIcEEE3strB8ue170006Ev, symObjAddr: 0x13FC, symBinAddr: 0x10000540C, symSize: 0x30 }
  - { offsetInCU: 0xF225, offset: 0x14C85, size: 0x8, addend: 0x0, symName: __ZNSt3__118basic_stringstreamIcNS_11char_traitsIcEENS_9allocatorIcEEED1Ev, symObjAddr: 0x142C, symBinAddr: 0x10000543C, symSize: 0x70 }
  - { offsetInCU: 0xF256, offset: 0x14CB6, size: 0x8, addend: 0x0, symName: __ZNSt3__114basic_ifstreamIcNS_11char_traitsIcEEED1Ev, symObjAddr: 0x149C, symBinAddr: 0x1000054AC, symSize: 0x70 }
  - { offsetInCU: 0xF281, offset: 0x14CE1, size: 0x8, addend: 0x0, symName: __Z3XORNSt3__112basic_stringIcNS_11char_traitsIcEENS_9allocatorIcEEEES5_i, symObjAddr: 0x150C, symBinAddr: 0x10000551C, symSize: 0x2A8 }
  - { offsetInCU: 0xF36C, offset: 0x14DCC, size: 0x8, addend: 0x0, symName: __ZNSt3__16bitsetILm48EEC1B8ue170006IcNS_11char_traitsIcEENS_9allocatorIcEEEERKNS_12basic_stringIT_T0_T1_EENSB_9size_typeESE_S8_S8_, symObjAddr: 0x17B4, symBinAddr: 0x1000057C4, symSize: 0x54 }
  - { offsetInCU: 0xF3F9, offset: 0x14E59, size: 0x8, addend: 0x0, symName: __ZNSt3__16bitsetILm48EEeOB8ue170006ERKS1_, symObjAddr: 0x1808, symBinAddr: 0x100005818, symSize: 0x34 }
  - { offsetInCU: 0xF42F, offset: 0x14E8F, size: 0x8, addend: 0x0, symName: __ZNKSt3__16bitsetILm48EE9to_stringB8ue170006Ecc, symObjAddr: 0x183C, symBinAddr: 0x10000584C, symSize: 0x3C }
  - { offsetInCU: 0xF48E, offset: 0x14EEE, size: 0x8, addend: 0x0, symName: __ZNSt3__16bitsetILm32EEC1B8ue170006IcNS_11char_traitsIcEENS_9allocatorIcEEEERKNS_12basic_stringIT_T0_T1_EENSB_9size_typeESE_S8_S8_, symObjAddr: 0x1878, symBinAddr: 0x100005888, symSize: 0x54 }
  - { offsetInCU: 0xF51B, offset: 0x14F7B, size: 0x8, addend: 0x0, symName: __ZNSt3__16bitsetILm32EEeOB8ue170006ERKS1_, symObjAddr: 0x18CC, symBinAddr: 0x1000058DC, symSize: 0x34 }
  - { offsetInCU: 0xF551, offset: 0x14FB1, size: 0x8, addend: 0x0, symName: __ZNKSt3__16bitsetILm32EE9to_stringB8ue170006Ecc, symObjAddr: 0x1900, symBinAddr: 0x100005910, symSize: 0x3C }
  - { offsetInCU: 0xF596, offset: 0x14FF6, size: 0x8, addend: 0x0, symName: __ZNSt3__16bitsetILm64EEeOB8ue170006ERKS1_, symObjAddr: 0x193C, symBinAddr: 0x10000594C, symSize: 0x34 }
  - { offsetInCU: 0xF5CC, offset: 0x1502C, size: 0x8, addend: 0x0, symName: __ZNKSt3__16bitsetILm64EE9to_stringB8ue170006Ecc, symObjAddr: 0x1970, symBinAddr: 0x100005980, symSize: 0x3C }
  - { offsetInCU: 0xF611, offset: 0x15071, size: 0x8, addend: 0x0, symName: __Z16block_generationNSt3__112basic_stringIcNS_11char_traitsIcEENS_9allocatorIcEEEEi, symObjAddr: 0x19AC, symBinAddr: 0x1000059BC, symSize: 0x374 }
  - { offsetInCU: 0xF702, offset: 0x15162, size: 0x8, addend: 0x0, symName: __ZNSt3__16vectorINS_12basic_stringIcNS_11char_traitsIcEENS_9allocatorIcEEEENS4_IS6_EEE9push_backB8ue170006EOS6_, symObjAddr: 0x1D20, symBinAddr: 0x100005D30, symSize: 0x6C }
  - { offsetInCU: 0xF738, offset: 0x15198, size: 0x8, addend: 0x0, symName: __Z10write_fileNSt3__112basic_stringIcNS_11char_traitsIcEENS_9allocatorIcEEEES5_, symObjAddr: 0x1D8C, symBinAddr: 0x100005D9C, symSize: 0x170 }
  - { offsetInCU: 0xF7AD, offset: 0x1520D, size: 0x8, addend: 0x0, symName: __ZNSt3__113basic_fstreamIcNS_11char_traitsIcEEEC1Ev, symObjAddr: 0x1EFC, symBinAddr: 0x100005F0C, symSize: 0x10C }
  - { offsetInCU: 0xF7D7, offset: 0x15237, size: 0x8, addend: 0x0, symName: __ZNSt3__113basic_fstreamIcNS_11char_traitsIcEEE4openERKNS_12basic_stringIcS2_NS_9allocatorIcEEEEj, symObjAddr: 0x2008, symBinAddr: 0x100006018, symSize: 0x84 }
  - { offsetInCU: 0xF81C, offset: 0x1527C, size: 0x8, addend: 0x0, symName: __ZNKSt3__113basic_fstreamIcNS_11char_traitsIcEEE7is_openEv, symObjAddr: 0x208C, symBinAddr: 0x10000609C, symSize: 0x2C }
  - { offsetInCU: 0xF843, offset: 0x152A3, size: 0x8, addend: 0x0, symName: __ZNSt3__113basic_fstreamIcNS_11char_traitsIcEEE5closeEv, symObjAddr: 0x214C, symBinAddr: 0x10000615C, symSize: 0x58 }
  - { offsetInCU: 0xF870, offset: 0x152D0, size: 0x8, addend: 0x0, symName: __ZNSt3__113basic_fstreamIcNS_11char_traitsIcEEED1Ev, symObjAddr: 0x21A4, symBinAddr: 0x1000061B4, symSize: 0x70 }
  - { offsetInCU: 0xF89A, offset: 0x152FA, size: 0x8, addend: 0x0, symName: __Z8unpaddedNSt3__112basic_stringIcNS_11char_traitsIcEENS_9allocatorIcEEEE, symObjAddr: 0x2214, symBinAddr: 0x100006224, symSize: 0x1D4 }
  - { offsetInCU: 0xF8F2, offset: 0x15352, size: 0x8, addend: 0x0, symName: __ZNSt3__16bitsetILm4EEC1B8ue170006IcNS_11char_traitsIcEENS_9allocatorIcEEEERKNS_12basic_stringIT_T0_T1_EENSB_9size_typeESE_S8_S8_, symObjAddr: 0x23E8, symBinAddr: 0x1000063F8, symSize: 0x54 }
  - { offsetInCU: 0xF97F, offset: 0x153DF, size: 0x8, addend: 0x0, symName: __ZNKSt3__16bitsetILm4EE8to_ulongB8ue170006Ev, symObjAddr: 0x243C, symBinAddr: 0x10000644C, symSize: 0x24 }
  - { offsetInCU: 0xF9A7, offset: 0x15407, size: 0x8, addend: 0x0, symName: __ZNSt3__118basic_stringstreamIcNS_11char_traitsIcEENS_9allocatorIcEEED2Ev, symObjAddr: 0x2460, symBinAddr: 0x100006470, symSize: 0xA4 }
  - { offsetInCU: 0xF9DF, offset: 0x1543F, size: 0x8, addend: 0x0, symName: __ZThn16_NSt3__118basic_stringstreamIcNS_11char_traitsIcEENS_9allocatorIcEEED1Ev, symObjAddr: 0x2504, symBinAddr: 0x100006514, symSize: 0x1C }
  - { offsetInCU: 0xF9F6, offset: 0x15456, size: 0x8, addend: 0x0, symName: __ZTv0_n24_NSt3__118basic_stringstreamIcNS_11char_traitsIcEENS_9allocatorIcEEED1Ev, symObjAddr: 0x2520, symBinAddr: 0x100006530, symSize: 0x28 }
  - { offsetInCU: 0xFA12, offset: 0x15472, size: 0x8, addend: 0x0, symName: __ZNSt3__115basic_stringbufIcNS_11char_traitsIcEENS_9allocatorIcEEED1Ev, symObjAddr: 0x2548, symBinAddr: 0x100006558, symSize: 0x2C }
  - { offsetInCU: 0xFA3E, offset: 0x1549E, size: 0x8, addend: 0x0, symName: __ZNSt3__115basic_stringbufIcNS_11char_traitsIcEENS_9allocatorIcEEED2Ev, symObjAddr: 0x2574, symBinAddr: 0x100006584, symSize: 0x78 }
  - { offsetInCU: 0xFA6A, offset: 0x154CA, size: 0x8, addend: 0x0, symName: __ZNSt3__114basic_ifstreamIcNS_11char_traitsIcEEED2Ev, symObjAddr: 0x25EC, symBinAddr: 0x1000065FC, symSize: 0x9C }
  - { offsetInCU: 0xFAA2, offset: 0x15502, size: 0x8, addend: 0x0, symName: __ZTv0_n24_NSt3__114basic_ifstreamIcNS_11char_traitsIcEEED1Ev, symObjAddr: 0x2688, symBinAddr: 0x100006698, symSize: 0x28 }
  - { offsetInCU: 0xFAB9, offset: 0x15519, size: 0x8, addend: 0x0, symName: __ZNSt3__113basic_fstreamIcNS_11char_traitsIcEEED2Ev, symObjAddr: 0x26B0, symBinAddr: 0x1000066C0, symSize: 0xA4 }
  - { offsetInCU: 0xFAF0, offset: 0x15550, size: 0x8, addend: 0x0, symName: __ZThn16_NSt3__113basic_fstreamIcNS_11char_traitsIcEEED1Ev, symObjAddr: 0x2754, symBinAddr: 0x100006764, symSize: 0x1C }
  - { offsetInCU: 0xFB06, offset: 0x15566, size: 0x8, addend: 0x0, symName: __ZTv0_n24_NSt3__113basic_fstreamIcNS_11char_traitsIcEEED1Ev, symObjAddr: 0x2770, symBinAddr: 0x100006780, symSize: 0x28 }
  - { offsetInCU: 0xFB1C, offset: 0x1557C, size: 0x8, addend: 0x0, symName: __ZNSt3__113basic_fstreamIcNS_11char_traitsIcEEED0Ev, symObjAddr: 0x2798, symBinAddr: 0x1000067A8, symSize: 0x58 }
  - { offsetInCU: 0xFB47, offset: 0x155A7, size: 0x8, addend: 0x0, symName: __ZThn16_NSt3__113basic_fstreamIcNS_11char_traitsIcEEED0Ev, symObjAddr: 0x27F0, symBinAddr: 0x100006800, symSize: 0x18 }
  - { offsetInCU: 0xFB5D, offset: 0x155BD, size: 0x8, addend: 0x0, symName: __ZTv0_n24_NSt3__113basic_fstreamIcNS_11char_traitsIcEEED0Ev, symObjAddr: 0x2808, symBinAddr: 0x100006818, symSize: 0x20 }
  - { offsetInCU: 0xFB73, offset: 0x155D3, size: 0x8, addend: 0x0, symName: __ZNSt3__112basic_stringIcNS_11char_traitsIcEENS_9allocatorIcEEEC2B8ue170006Ev, symObjAddr: 0x2828, symBinAddr: 0x100006838, symSize: 0x3C }
  - { offsetInCU: 0xFBA0, offset: 0x15600, size: 0x8, addend: 0x0, symName: __ZNSt3__112basic_stringIcNS_11char_traitsIcEENS_9allocatorIcEEE14__default_initB8ue170006Ev, symObjAddr: 0x28A0, symBinAddr: 0x100006874, symSize: 0xB0 }
  - { offsetInCU: 0xFBF0, offset: 0x15650, size: 0x8, addend: 0x0, symName: __ZNSt3__112basic_stringIcNS_11char_traitsIcEENS_9allocatorIcEEE11__recommendB8ue170006Em, symObjAddr: 0x2A3C, symBinAddr: 0x100006924, symSize: 0x9C }
  - { offsetInCU: 0xFC22, offset: 0x15682, size: 0x8, addend: 0x0, symName: __ZNSt3__116allocator_traitsINS_9allocatorIcEEE8allocateB8ue170006ERS2_m, symObjAddr: 0x2AD8, symBinAddr: 0x1000069C0, symSize: 0x2C }
  - { offsetInCU: 0xFC54, offset: 0x156B4, size: 0x8, addend: 0x0, symName: __ZNSt3__112basic_stringIcNS_11char_traitsIcEENS_9allocatorIcEEE7__allocB8ue170006Ev, symObjAddr: 0x2B04, symBinAddr: 0x1000069EC, symSize: 0x24 }
  - { offsetInCU: 0xFC78, offset: 0x156D8, size: 0x8, addend: 0x0, symName: __ZNSt3__112basic_stringIcNS_11char_traitsIcEENS_9allocatorIcEEE16__begin_lifetimeB8ue170006EPcm, symObjAddr: 0x2B28, symBinAddr: 0x100006A10, symSize: 0x14 }
  - { offsetInCU: 0xFCAA, offset: 0x1570A, size: 0x8, addend: 0x0, symName: __ZNSt3__112basic_stringIcNS_11char_traitsIcEENS_9allocatorIcEEE18__set_long_pointerB8ue170006EPc, symObjAddr: 0x2B3C, symBinAddr: 0x100006A24, symSize: 0x38 }
  - { offsetInCU: 0xFCDD, offset: 0x1573D, size: 0x8, addend: 0x0, symName: __ZNSt3__112basic_stringIcNS_11char_traitsIcEENS_9allocatorIcEEE14__set_long_capB8ue170006Em, symObjAddr: 0x2B74, symBinAddr: 0x100006A5C, symSize: 0x70 }
  - { offsetInCU: 0xFD10, offset: 0x15770, size: 0x8, addend: 0x0, symName: __ZNSt3__112basic_stringIcNS_11char_traitsIcEENS_9allocatorIcEEE15__set_long_sizeB8ue170006Em, symObjAddr: 0x2BE4, symBinAddr: 0x100006ACC, symSize: 0x38 }
  - { offsetInCU: 0xFD43, offset: 0x157A3, size: 0x8, addend: 0x0, symName: __ZNSt3__112basic_stringIcNS_11char_traitsIcEENS_9allocatorIcEEE10__align_itB8ue170006ILm16EEEmm, symObjAddr: 0x2C30, symBinAddr: 0x100006B04, symSize: 0x1C }
  - { offsetInCU: 0xFD70, offset: 0x157D0, size: 0x8, addend: 0x0, symName: __ZNSt3__19allocatorIcE8allocateB8ue170006Em, symObjAddr: 0x2C4C, symBinAddr: 0x100006B20, symSize: 0x84 }
  - { offsetInCU: 0xFDAC, offset: 0x1580C, size: 0x8, addend: 0x0, symName: __ZNSt3__116allocator_traitsINS_9allocatorIcEEE8max_sizeB8ue170006IS2_vEEmRKS2_, symObjAddr: 0x2CD0, symBinAddr: 0x100006BA4, symSize: 0x24 }
  - { offsetInCU: 0xFDD9, offset: 0x15839, size: 0x8, addend: 0x0, symName: __ZNKSt3__19allocatorIcE8max_sizeB8ue170006Ev, symObjAddr: 0x2D50, symBinAddr: 0x100006C24, symSize: 0x14 }
  - { offsetInCU: 0xFDFD, offset: 0x1585D, size: 0x8, addend: 0x0, symName: __ZNSt3__117__compressed_pairINS_12basic_stringIcNS_11char_traitsIcEENS_9allocatorIcEEE5__repES5_E6secondB8ue170006Ev, symObjAddr: 0x2D88, symBinAddr: 0x100006C5C, symSize: 0x24 }
  - { offsetInCU: 0xFE21, offset: 0x15881, size: 0x8, addend: 0x0, symName: __ZNSt3__122__compressed_pair_elemINS_9allocatorIcEELi1ELb1EE5__getB8ue170006Ev, symObjAddr: 0x2DAC, symBinAddr: 0x100006C80, symSize: 0x14 }
  - { offsetInCU: 0xFE45, offset: 0x158A5, size: 0x8, addend: 0x0, symName: __ZNSt3__16vectorINS_12basic_stringIcNS_11char_traitsIcEENS_9allocatorIcEEEENS4_IS6_EEEC2B8ue170006Ev, symObjAddr: 0x2F80, symBinAddr: 0x100006C94, symSize: 0x44 }
  - { offsetInCU: 0xFE72, offset: 0x158D2, size: 0x8, addend: 0x0, symName: __ZNSt3__117__compressed_pairIPNS_12basic_stringIcNS_11char_traitsIcEENS_9allocatorIcEEEENS4_IS6_EEEC1B8ue170006IDnNS_18__default_init_tagEEEOT_OT0_, symObjAddr: 0x2FC4, symBinAddr: 0x100006CD8, symSize: 0x3C }
  - { offsetInCU: 0xFEC8, offset: 0x15928, size: 0x8, addend: 0x0, symName: __ZNSt3__117__compressed_pairIPNS_12basic_stringIcNS_11char_traitsIcEENS_9allocatorIcEEEENS4_IS6_EEEC2B8ue170006IDnNS_18__default_init_tagEEEOT_OT0_, symObjAddr: 0x3000, symBinAddr: 0x100006D14, symSize: 0x40 }
  - { offsetInCU: 0xFF1E, offset: 0x1597E, size: 0x8, addend: 0x0, symName: __ZNSt3__122__compressed_pair_elemIPNS_12basic_stringIcNS_11char_traitsIcEENS_9allocatorIcEEEELi0ELb0EEC2B8ue170006IDnvEEOT_, symObjAddr: 0x3040, symBinAddr: 0x100006D54, symSize: 0x1C }
  - { offsetInCU: 0xFF5E, offset: 0x159BE, size: 0x8, addend: 0x0, symName: __ZNSt3__122__compressed_pair_elemINS_9allocatorINS_12basic_stringIcNS_11char_traitsIcEENS1_IcEEEEEELi1ELb1EEC2B8ue170006ENS_18__default_init_tagE, symObjAddr: 0x305C, symBinAddr: 0x100006D70, symSize: 0x2C }
  - { offsetInCU: 0xFF90, offset: 0x159F0, size: 0x8, addend: 0x0, symName: __ZNSt3__19allocatorINS_12basic_stringIcNS_11char_traitsIcEENS0_IcEEEEEC2B8ue170006Ev, symObjAddr: 0x3088, symBinAddr: 0x100006D9C, symSize: 0x2C }
  - { offsetInCU: 0xFFB8, offset: 0x15A18, size: 0x8, addend: 0x0, symName: __ZNSt3__116__non_trivial_ifILb1ENS_9allocatorINS_12basic_stringIcNS_11char_traitsIcEENS1_IcEEEEEEEC2B8ue170006Ev, symObjAddr: 0x30B4, symBinAddr: 0x100006DC8, symSize: 0x14 }
  - { offsetInCU: 0xFFE0, offset: 0x15A40, size: 0x8, addend: 0x0, symName: __ZNSt3__16vectorINS_12basic_stringIcNS_11char_traitsIcEENS_9allocatorIcEEEENS4_IS6_EEED2B8ue170006Ev, symObjAddr: 0x30C8, symBinAddr: 0x100006DDC, symSize: 0x3C }
  - { offsetInCU: 0x10008, offset: 0x15A68, size: 0x8, addend: 0x0, symName: __ZNSt3__16vectorINS_12basic_stringIcNS_11char_traitsIcEENS_9allocatorIcEEEENS4_IS6_EEE16__destroy_vectorC1B8ue170006ERS8_, symObjAddr: 0x3104, symBinAddr: 0x100006E18, symSize: 0x34 }
  - { offsetInCU: 0x1003F, offset: 0x15A9F, size: 0x8, addend: 0x0, symName: __ZNSt3__16vectorINS_12basic_stringIcNS_11char_traitsIcEENS_9allocatorIcEEEENS4_IS6_EEE16__destroy_vectorclB8ue170006Ev, symObjAddr: 0x3138, symBinAddr: 0x100006E4C, symSize: 0x90 }
  - { offsetInCU: 0x10063, offset: 0x15AC3, size: 0x8, addend: 0x0, symName: __ZNSt3__16vectorINS_12basic_stringIcNS_11char_traitsIcEENS_9allocatorIcEEEENS4_IS6_EEE16__destroy_vectorC2B8ue170006ERS8_, symObjAddr: 0x31C8, symBinAddr: 0x100006EDC, symSize: 0x20 }
  - { offsetInCU: 0x1009A, offset: 0x15AFA, size: 0x8, addend: 0x0, symName: __ZNSt3__16vectorINS_12basic_stringIcNS_11char_traitsIcEENS_9allocatorIcEEEENS4_IS6_EEE7__clearB8ue170006Ev, symObjAddr: 0x31E8, symBinAddr: 0x100006EFC, symSize: 0x28 }
  - { offsetInCU: 0x100BE, offset: 0x15B1E, size: 0x8, addend: 0x0, symName: __ZNKSt3__16vectorINS_12basic_stringIcNS_11char_traitsIcEENS_9allocatorIcEEEENS4_IS6_EEE17__annotate_deleteB8ue170006Ev, symObjAddr: 0x3210, symBinAddr: 0x100006F24, symSize: 0xD4 }
  - { offsetInCU: 0x100E2, offset: 0x15B42, size: 0x8, addend: 0x0, symName: __ZNSt3__116allocator_traitsINS_9allocatorINS_12basic_stringIcNS_11char_traitsIcEENS1_IcEEEEEEE10deallocateB8ue170006ERS7_PS6_m, symObjAddr: 0x32E4, symBinAddr: 0x100006FF8, symSize: 0x34 }
  - { offsetInCU: 0x10123, offset: 0x15B83, size: 0x8, addend: 0x0, symName: __ZNSt3__16vectorINS_12basic_stringIcNS_11char_traitsIcEENS_9allocatorIcEEEENS4_IS6_EEE7__allocB8ue170006Ev, symObjAddr: 0x3318, symBinAddr: 0x10000702C, symSize: 0x28 }
  - { offsetInCU: 0x10147, offset: 0x15BA7, size: 0x8, addend: 0x0, symName: __ZNKSt3__16vectorINS_12basic_stringIcNS_11char_traitsIcEENS_9allocatorIcEEEENS4_IS6_EEE8capacityB8ue170006Ev, symObjAddr: 0x3340, symBinAddr: 0x100007054, symSize: 0x40 }
  - { offsetInCU: 0x1016B, offset: 0x15BCB, size: 0x8, addend: 0x0, symName: __ZNSt3__16vectorINS_12basic_stringIcNS_11char_traitsIcEENS_9allocatorIcEEEENS4_IS6_EEE22__base_destruct_at_endB8ue170006EPS6_, symObjAddr: 0x3380, symBinAddr: 0x100007094, symSize: 0xA0 }
  - { offsetInCU: 0x101AD, offset: 0x15C0D, size: 0x8, addend: 0x0, symName: __ZNSt3__116allocator_traitsINS_9allocatorINS_12basic_stringIcNS_11char_traitsIcEENS1_IcEEEEEEE7destroyB8ue170006IS6_vEEvRS7_PT_, symObjAddr: 0x3420, symBinAddr: 0x100007134, symSize: 0x2C }
  - { offsetInCU: 0x101E9, offset: 0x15C49, size: 0x8, addend: 0x0, symName: __ZNSt3__19allocatorINS_12basic_stringIcNS_11char_traitsIcEENS0_IcEEEEE7destroyB8ue170006EPS5_, symObjAddr: 0x3460, symBinAddr: 0x100007174, symSize: 0x28 }
  - { offsetInCU: 0x1021B, offset: 0x15C7B, size: 0x8, addend: 0x0, symName: __ZNKSt3__16vectorINS_12basic_stringIcNS_11char_traitsIcEENS_9allocatorIcEEEENS4_IS6_EEE31__annotate_contiguous_containerB8ue170006EPKvSA_SA_SA_, symObjAddr: 0x3488, symBinAddr: 0x10000719C, symSize: 0x20 }
  - { offsetInCU: 0x1026F, offset: 0x15CCF, size: 0x8, addend: 0x0, symName: __ZNKSt3__16vectorINS_12basic_stringIcNS_11char_traitsIcEENS_9allocatorIcEEEENS4_IS6_EEE4dataB8ue170006Ev, symObjAddr: 0x34A8, symBinAddr: 0x1000071BC, symSize: 0x28 }
  - { offsetInCU: 0x10293, offset: 0x15CF3, size: 0x8, addend: 0x0, symName: __ZNSt3__19allocatorINS_12basic_stringIcNS_11char_traitsIcEENS0_IcEEEEE10deallocateB8ue170006EPS5_m, symObjAddr: 0x34D0, symBinAddr: 0x1000071E4, symSize: 0x74 }
  - { offsetInCU: 0x102D3, offset: 0x15D33, size: 0x8, addend: 0x0, symName: __ZNSt3__117__compressed_pairIPNS_12basic_stringIcNS_11char_traitsIcEENS_9allocatorIcEEEENS4_IS6_EEE6secondB8ue170006Ev, symObjAddr: 0x35C0, symBinAddr: 0x1000072D4, symSize: 0x24 }
  - { offsetInCU: 0x102F7, offset: 0x15D57, size: 0x8, addend: 0x0, symName: __ZNSt3__122__compressed_pair_elemINS_9allocatorINS_12basic_stringIcNS_11char_traitsIcEENS1_IcEEEEEELi1ELb1EE5__getB8ue170006Ev, symObjAddr: 0x35E4, symBinAddr: 0x1000072F8, symSize: 0x14 }
  - { offsetInCU: 0x1031B, offset: 0x15D7B, size: 0x8, addend: 0x0, symName: __ZNKSt3__16vectorINS_12basic_stringIcNS_11char_traitsIcEENS_9allocatorIcEEEENS4_IS6_EEE9__end_capB8ue170006Ev, symObjAddr: 0x35F8, symBinAddr: 0x10000730C, symSize: 0x28 }
  - { offsetInCU: 0x1033F, offset: 0x15D9F, size: 0x8, addend: 0x0, symName: __ZNKSt3__117__compressed_pairIPNS_12basic_stringIcNS_11char_traitsIcEENS_9allocatorIcEEEENS4_IS6_EEE5firstB8ue170006Ev, symObjAddr: 0x3620, symBinAddr: 0x100007334, symSize: 0x24 }
  - { offsetInCU: 0x10363, offset: 0x15DC3, size: 0x8, addend: 0x0, symName: __ZNKSt3__122__compressed_pair_elemIPNS_12basic_stringIcNS_11char_traitsIcEENS_9allocatorIcEEEELi0ELb0EE5__getB8ue170006Ev, symObjAddr: 0x3644, symBinAddr: 0x100007358, symSize: 0x14 }
  - { offsetInCU: 0x10387, offset: 0x15DE7, size: 0x8, addend: 0x0, symName: __ZNSt3__16bitsetILm8EEC2B8ue170006Ey, symObjAddr: 0x3658, symBinAddr: 0x10000736C, symSize: 0x34 }
  - { offsetInCU: 0x103BE, offset: 0x15E1E, size: 0x8, addend: 0x0, symName: __ZNSt3__18__bitsetILm1ELm8EEC2Ey, symObjAddr: 0x368C, symBinAddr: 0x1000073A0, symSize: 0x20 }
  - { offsetInCU: 0x103F7, offset: 0x15E57, size: 0x8, addend: 0x0, symName: __ZNKSt3__16bitsetILm8EE9to_stringB8ue170006IcNS_11char_traitsIcEENS_9allocatorIcEEEENS_12basic_stringIT_T0_T1_EES8_S8_, symObjAddr: 0x36AC, symBinAddr: 0x1000073C0, symSize: 0x140 }
  - { offsetInCU: 0x1047D, offset: 0x15EDD, size: 0x8, addend: 0x0, symName: __ZNSt3__112basic_stringIcNS_11char_traitsIcEENS_9allocatorIcEEEC1B8ue170006Emc, symObjAddr: 0x37EC, symBinAddr: 0x100007500, symSize: 0x3C }
  - { offsetInCU: 0x104C3, offset: 0x15F23, size: 0x8, addend: 0x0, symName: __ZNKSt3__16bitsetILm8EEixB8ue170006Em, symObjAddr: 0x3828, symBinAddr: 0x10000753C, symSize: 0x3C }
  - { offsetInCU: 0x104F6, offset: 0x15F56, size: 0x8, addend: 0x0, symName: __ZNKSt3__121__bit_const_referenceINS_8__bitsetILm1ELm8EEEEcvbB8ue170006Ev, symObjAddr: 0x3864, symBinAddr: 0x100007578, symSize: 0x2C }
  - { offsetInCU: 0x1051A, offset: 0x15F7A, size: 0x8, addend: 0x0, symName: __ZNSt3__112basic_stringIcNS_11char_traitsIcEENS_9allocatorIcEEEC2B8ue170006Emc, symObjAddr: 0x3890, symBinAddr: 0x1000075A4, symSize: 0x4C }
  - { offsetInCU: 0x10560, offset: 0x15FC0, size: 0x8, addend: 0x0, symName: __ZNKSt3__18__bitsetILm1ELm8EE10__make_refB8ue170006Em, symObjAddr: 0x38DC, symBinAddr: 0x1000075F0, symSize: 0x40 }
  - { offsetInCU: 0x10593, offset: 0x15FF3, size: 0x8, addend: 0x0, symName: __ZNSt3__121__bit_const_referenceINS_8__bitsetILm1ELm8EEEEC1B8ue170006EPKmm, symObjAddr: 0x391C, symBinAddr: 0x100007630, symSize: 0x3C }
  - { offsetInCU: 0x105D7, offset: 0x16037, size: 0x8, addend: 0x0, symName: __ZNSt3__121__bit_const_referenceINS_8__bitsetILm1ELm8EEEEC2B8ue170006EPKmm, symObjAddr: 0x3958, symBinAddr: 0x10000766C, symSize: 0x2C }
  - { offsetInCU: 0x1061B, offset: 0x1607B, size: 0x8, addend: 0x0, symName: __ZNSt3__16vectorINS_12basic_stringIcNS_11char_traitsIcEENS_9allocatorIcEEEENS4_IS6_EEE9__end_capB8ue170006Ev, symObjAddr: 0x3AC4, symBinAddr: 0x100007698, symSize: 0x28 }
  - { offsetInCU: 0x1063F, offset: 0x1609F, size: 0x8, addend: 0x0, symName: __ZNSt3__16vectorINS_12basic_stringIcNS_11char_traitsIcEENS_9allocatorIcEEEENS4_IS6_EEE22__construct_one_at_endB8ue170006IJRKS6_EEEvDpOT_, symObjAddr: 0x3AEC, symBinAddr: 0x1000076C0, symSize: 0x98 }
  - { offsetInCU: 0x1068B, offset: 0x160EB, size: 0x8, addend: 0x0, symName: __ZNSt3__16vectorINS_12basic_stringIcNS_11char_traitsIcEENS_9allocatorIcEEEENS4_IS6_EEE21__push_back_slow_pathIRKS6_EEvOT_, symObjAddr: 0x3B84, symBinAddr: 0x100007758, symSize: 0xE0 }
  - { offsetInCU: 0x106E9, offset: 0x16149, size: 0x8, addend: 0x0, symName: __ZNSt3__117__compressed_pairIPNS_12basic_stringIcNS_11char_traitsIcEENS_9allocatorIcEEEENS4_IS6_EEE5firstB8ue170006Ev, symObjAddr: 0x3C64, symBinAddr: 0x100007838, symSize: 0x24 }
  - { offsetInCU: 0x1070D, offset: 0x1616D, size: 0x8, addend: 0x0, symName: __ZNSt3__122__compressed_pair_elemIPNS_12basic_stringIcNS_11char_traitsIcEENS_9allocatorIcEEEELi0ELb0EE5__getB8ue170006Ev, symObjAddr: 0x3C88, symBinAddr: 0x10000785C, symSize: 0x14 }
  - { offsetInCU: 0x1074A, offset: 0x161AA, size: 0x8, addend: 0x0, symName: __ZNSt3__16vectorINS_12basic_stringIcNS_11char_traitsIcEENS_9allocatorIcEEEENS4_IS6_EEE21_ConstructTransactionC1B8ue170006ERS8_m, symObjAddr: 0x3C9C, symBinAddr: 0x100007870, symSize: 0x3C }
  - { offsetInCU: 0x10790, offset: 0x161F0, size: 0x8, addend: 0x0, symName: __ZNSt3__116allocator_traitsINS_9allocatorINS_12basic_stringIcNS_11char_traitsIcEENS1_IcEEEEEEE9constructB8ue170006IS6_JRKS6_EvEEvRS7_PT_DpOT0_, symObjAddr: 0x3CD8, symBinAddr: 0x1000078AC, symSize: 0x34 }
  - { offsetInCU: 0x107E6, offset: 0x16246, size: 0x8, addend: 0x0, symName: __ZNSt3__16vectorINS_12basic_stringIcNS_11char_traitsIcEENS_9allocatorIcEEEENS4_IS6_EEE21_ConstructTransactionD1B8ue170006Ev, symObjAddr: 0x3D0C, symBinAddr: 0x1000078E0, symSize: 0x2C }
  - { offsetInCU: 0x1080E, offset: 0x1626E, size: 0x8, addend: 0x0, symName: __ZNSt3__16vectorINS_12basic_stringIcNS_11char_traitsIcEENS_9allocatorIcEEEENS4_IS6_EEE21_ConstructTransactionC2B8ue170006ERS8_m, symObjAddr: 0x3D38, symBinAddr: 0x10000790C, symSize: 0x4C }
  - { offsetInCU: 0x10854, offset: 0x162B4, size: 0x8, addend: 0x0, symName: __ZNSt3__19allocatorINS_12basic_stringIcNS_11char_traitsIcEENS0_IcEEEEE9constructB8ue170006IS5_JRKS5_EEEvPT_DpOT0_, symObjAddr: 0x3D84, symBinAddr: 0x100007958, symSize: 0x30 }
  - { offsetInCU: 0x108A8, offset: 0x16308, size: 0x8, addend: 0x0, symName: __ZNSt3__16vectorINS_12basic_stringIcNS_11char_traitsIcEENS_9allocatorIcEEEENS4_IS6_EEE21_ConstructTransactionD2B8ue170006Ev, symObjAddr: 0x3DB4, symBinAddr: 0x100007988, symSize: 0x20 }
  - { offsetInCU: 0x108CF, offset: 0x1632F, size: 0x8, addend: 0x0, symName: __ZNKSt3__16vectorINS_12basic_stringIcNS_11char_traitsIcEENS_9allocatorIcEEEENS4_IS6_EEE11__recommendB8ue170006Em, symObjAddr: 0x3DD4, symBinAddr: 0x1000079A8, symSize: 0xB4 }
  - { offsetInCU: 0x10924, offset: 0x16384, size: 0x8, addend: 0x0, symName: __ZNSt3__114__split_bufferINS_12basic_stringIcNS_11char_traitsIcEENS_9allocatorIcEEEERNS4_IS6_EEEC1EmmS8_, symObjAddr: 0x3E88, symBinAddr: 0x100007A5C, symSize: 0x44 }
  - { offsetInCU: 0x10979, offset: 0x163D9, size: 0x8, addend: 0x0, symName: __ZNSt3__114__split_bufferINS_12basic_stringIcNS_11char_traitsIcEENS_9allocatorIcEEEERNS4_IS6_EEED1Ev, symObjAddr: 0x3FDC, symBinAddr: 0x100007BB0, symSize: 0x2C }
  - { offsetInCU: 0x109A3, offset: 0x16403, size: 0x8, addend: 0x0, symName: __ZNKSt3__16vectorINS_12basic_stringIcNS_11char_traitsIcEENS_9allocatorIcEEEENS4_IS6_EEE8max_sizeEv, symObjAddr: 0x4008, symBinAddr: 0x100007BDC, symSize: 0x74 }
  - { offsetInCU: 0x109CB, offset: 0x1642B, size: 0x8, addend: 0x0, symName: __ZNKSt3__16vectorINS_12basic_stringIcNS_11char_traitsIcEENS_9allocatorIcEEEENS4_IS6_EEE20__throw_length_errorB8ue170006Ev, symObjAddr: 0x407C, symBinAddr: 0x100007C50, symSize: 0x1C }
  - { offsetInCU: 0x109F9, offset: 0x16459, size: 0x8, addend: 0x0, symName: __ZNSt3__116allocator_traitsINS_9allocatorINS_12basic_stringIcNS_11char_traitsIcEENS1_IcEEEEEEE8max_sizeB8ue170006IS7_vEEmRKS7_, symObjAddr: 0x40F0, symBinAddr: 0x100007CC4, symSize: 0x24 }
  - { offsetInCU: 0x10A26, offset: 0x16486, size: 0x8, addend: 0x0, symName: __ZNKSt3__16vectorINS_12basic_stringIcNS_11char_traitsIcEENS_9allocatorIcEEEENS4_IS6_EEE7__allocB8ue170006Ev, symObjAddr: 0x4114, symBinAddr: 0x100007CE8, symSize: 0x28 }
  - { offsetInCU: 0x10A4A, offset: 0x164AA, size: 0x8, addend: 0x0, symName: __ZNSt3__114numeric_limitsIlE3maxB8ue170006Ev, symObjAddr: 0x413C, symBinAddr: 0x100007D10, symSize: 0x14 }
  - { offsetInCU: 0x10A72, offset: 0x164D2, size: 0x8, addend: 0x0, symName: __ZNKSt3__16__lessIvvEclB8ue170006ImmEEbRKT_RKT0_, symObjAddr: 0x41A4, symBinAddr: 0x100007D78, symSize: 0x34 }
  - { offsetInCU: 0x10AC4, offset: 0x16524, size: 0x8, addend: 0x0, symName: __ZNKSt3__19allocatorINS_12basic_stringIcNS_11char_traitsIcEENS0_IcEEEEE8max_sizeB8ue170006Ev, symObjAddr: 0x41D8, symBinAddr: 0x100007DAC, symSize: 0x18 }
  - { offsetInCU: 0x10AE8, offset: 0x16548, size: 0x8, addend: 0x0, symName: __ZNKSt3__117__compressed_pairIPNS_12basic_stringIcNS_11char_traitsIcEENS_9allocatorIcEEEENS4_IS6_EEE6secondB8ue170006Ev, symObjAddr: 0x41F0, symBinAddr: 0x100007DC4, symSize: 0x24 }
  - { offsetInCU: 0x10B0C, offset: 0x1656C, size: 0x8, addend: 0x0, symName: __ZNKSt3__122__compressed_pair_elemINS_9allocatorINS_12basic_stringIcNS_11char_traitsIcEENS1_IcEEEEEELi1ELb1EE5__getB8ue170006Ev, symObjAddr: 0x4214, symBinAddr: 0x100007DE8, symSize: 0x14 }
  - { offsetInCU: 0x10B30, offset: 0x16590, size: 0x8, addend: 0x0, symName: __ZNSt3__123__libcpp_numeric_limitsIlLb1EE3maxB8ue170006Ev, symObjAddr: 0x4228, symBinAddr: 0x100007DFC, symSize: 0x8 }
  - { offsetInCU: 0x10B44, offset: 0x165A4, size: 0x8, addend: 0x0, symName: __ZNSt12length_errorC1B8ue170006EPKc, symObjAddr: 0x4294, symBinAddr: 0x100007E68, symSize: 0x34 }
  - { offsetInCU: 0x10B7A, offset: 0x165DA, size: 0x8, addend: 0x0, symName: __ZNSt12length_errorC2B8ue170006EPKc, symObjAddr: 0x42C8, symBinAddr: 0x100007E9C, symSize: 0x4C }
  - { offsetInCU: 0x10BB0, offset: 0x16610, size: 0x8, addend: 0x0, symName: __ZNSt3__114__split_bufferINS_12basic_stringIcNS_11char_traitsIcEENS_9allocatorIcEEEERNS4_IS6_EEEC2EmmS8_, symObjAddr: 0x4368, symBinAddr: 0x100007F3C, symSize: 0xE0 }
  - { offsetInCU: 0x10C22, offset: 0x16682, size: 0x8, addend: 0x0, symName: __ZNSt3__117__compressed_pairIPNS_12basic_stringIcNS_11char_traitsIcEENS_9allocatorIcEEEERNS4_IS6_EEEC1B8ue170006IDnS9_EEOT_OT0_, symObjAddr: 0x4448, symBinAddr: 0x10000801C, symSize: 0x3C }
  - { offsetInCU: 0x10C78, offset: 0x166D8, size: 0x8, addend: 0x0, symName: __ZNSt3__114__split_bufferINS_12basic_stringIcNS_11char_traitsIcEENS_9allocatorIcEEEERNS4_IS6_EEE7__allocB8ue170006Ev, symObjAddr: 0x44C4, symBinAddr: 0x100008098, symSize: 0x28 }
  - { offsetInCU: 0x10C9C, offset: 0x166FC, size: 0x8, addend: 0x0, symName: __ZNSt3__114__split_bufferINS_12basic_stringIcNS_11char_traitsIcEENS_9allocatorIcEEEERNS4_IS6_EEE9__end_capB8ue170006Ev, symObjAddr: 0x44EC, symBinAddr: 0x1000080C0, symSize: 0x28 }
  - { offsetInCU: 0x10CC0, offset: 0x16720, size: 0x8, addend: 0x0, symName: __ZNSt3__117__compressed_pairIPNS_12basic_stringIcNS_11char_traitsIcEENS_9allocatorIcEEEERNS4_IS6_EEEC2B8ue170006IDnS9_EEOT_OT0_, symObjAddr: 0x4514, symBinAddr: 0x1000080E8, symSize: 0x48 }
  - { offsetInCU: 0x10D16, offset: 0x16776, size: 0x8, addend: 0x0, symName: __ZNSt3__122__compressed_pair_elemIRNS_9allocatorINS_12basic_stringIcNS_11char_traitsIcEENS1_IcEEEEEELi1ELb0EEC2B8ue170006IS8_vEEOT_, symObjAddr: 0x455C, symBinAddr: 0x100008130, symSize: 0x20 }
  - { offsetInCU: 0x10D56, offset: 0x167B6, size: 0x8, addend: 0x0, symName: __ZNSt3__19allocatorINS_12basic_stringIcNS_11char_traitsIcEENS0_IcEEEEE8allocateB8ue170006Em, symObjAddr: 0x457C, symBinAddr: 0x100008150, symSize: 0x8C }
  - { offsetInCU: 0x10D88, offset: 0x167E8, size: 0x8, addend: 0x0, symName: __ZNSt3__117__compressed_pairIPNS_12basic_stringIcNS_11char_traitsIcEENS_9allocatorIcEEEERNS4_IS6_EEE6secondB8ue170006Ev, symObjAddr: 0x4608, symBinAddr: 0x1000081DC, symSize: 0x28 }
  - { offsetInCU: 0x10DAC, offset: 0x1680C, size: 0x8, addend: 0x0, symName: __ZNSt3__122__compressed_pair_elemIRNS_9allocatorINS_12basic_stringIcNS_11char_traitsIcEENS1_IcEEEEEELi1ELb0EE5__getB8ue170006Ev, symObjAddr: 0x4630, symBinAddr: 0x100008204, symSize: 0x18 }
  - { offsetInCU: 0x10DD0, offset: 0x16830, size: 0x8, addend: 0x0, symName: __ZNSt3__117__compressed_pairIPNS_12basic_stringIcNS_11char_traitsIcEENS_9allocatorIcEEEERNS4_IS6_EEE5firstB8ue170006Ev, symObjAddr: 0x4648, symBinAddr: 0x10000821C, symSize: 0x24 }
  - { offsetInCU: 0x10DF4, offset: 0x16854, size: 0x8, addend: 0x0, symName: __ZNSt3__116reverse_iteratorIPNS_12basic_stringIcNS_11char_traitsIcEENS_9allocatorIcEEEEEC1B8ue170006ES7_, symObjAddr: 0x47A0, symBinAddr: 0x100008374, symSize: 0x34 }
  - { offsetInCU: 0x10E2A, offset: 0x1688A, size: 0x8, addend: 0x0, symName: __ZNKSt3__116reverse_iteratorIPNS_12basic_stringIcNS_11char_traitsIcEENS_9allocatorIcEEEEE4baseB8ue170006Ev, symObjAddr: 0x47D4, symBinAddr: 0x1000083A8, symSize: 0x18 }
  - { offsetInCU: 0x10E4E, offset: 0x168AE, size: 0x8, addend: 0x0, symName: __ZNKSt3__16vectorINS_12basic_stringIcNS_11char_traitsIcEENS_9allocatorIcEEEENS4_IS6_EEE14__annotate_newB8ue170006Em, symObjAddr: 0x4828, symBinAddr: 0x1000083FC, symSize: 0xC8 }
  - { offsetInCU: 0x10E81, offset: 0x168E1, size: 0x8, addend: 0x0, symName: __ZNSt3__129_AllocatorDestroyRangeReverseINS_9allocatorINS_12basic_stringIcNS_11char_traitsIcEENS1_IcEEEEEENS_16reverse_iteratorIPS6_EEEC1B8ue170006ERS7_RSA_SD_, symObjAddr: 0x493C, symBinAddr: 0x100008510, symSize: 0x44 }
  - { offsetInCU: 0x10ED6, offset: 0x16936, size: 0x8, addend: 0x0, symName: __ZNKSt3__116reverse_iteratorIPNS_12basic_stringIcNS_11char_traitsIcEENS_9allocatorIcEEEEEdeB8ue170006Ev, symObjAddr: 0x49EC, symBinAddr: 0x1000085C0, symSize: 0x28 }
  - { offsetInCU: 0x10F08, offset: 0x16968, size: 0x8, addend: 0x0, symName: __ZNSt3__116reverse_iteratorIPNS_12basic_stringIcNS_11char_traitsIcEENS_9allocatorIcEEEEEppB8ue170006Ev, symObjAddr: 0x4A14, symBinAddr: 0x1000085E8, symSize: 0x20 }
  - { offsetInCU: 0x10F2C, offset: 0x1698C, size: 0x8, addend: 0x0, symName: __ZNSt3__128__exception_guard_exceptionsINS_29_AllocatorDestroyRangeReverseINS_9allocatorINS_12basic_stringIcNS_11char_traitsIcEENS2_IcEEEEEENS_16reverse_iteratorIPS7_EEEEE10__completeB8ue170006Ev, symObjAddr: 0x4A34, symBinAddr: 0x100008608, symSize: 0x1C }
  - { offsetInCU: 0x10F50, offset: 0x169B0, size: 0x8, addend: 0x0, symName: __ZNSt3__128__exception_guard_exceptionsINS_29_AllocatorDestroyRangeReverseINS_9allocatorINS_12basic_stringIcNS_11char_traitsIcEENS2_IcEEEEEENS_16reverse_iteratorIPS7_EEEEED1B8ue170006Ev, symObjAddr: 0x4A50, symBinAddr: 0x100008624, symSize: 0x2C }
  - { offsetInCU: 0x10F78, offset: 0x169D8, size: 0x8, addend: 0x0, symName: __ZNSt3__128__exception_guard_exceptionsINS_29_AllocatorDestroyRangeReverseINS_9allocatorINS_12basic_stringIcNS_11char_traitsIcEENS2_IcEEEEEENS_16reverse_iteratorIPS7_EEEEEC1B8ue170006ESC_, symObjAddr: 0x4A7C, symBinAddr: 0x100008650, symSize: 0x34 }
  - { offsetInCU: 0x10FAF, offset: 0x16A0F, size: 0x8, addend: 0x0, symName: __ZNSt3__128__exception_guard_exceptionsINS_29_AllocatorDestroyRangeReverseINS_9allocatorINS_12basic_stringIcNS_11char_traitsIcEENS2_IcEEEEEENS_16reverse_iteratorIPS7_EEEEEC2B8ue170006ESC_, symObjAddr: 0x4AB0, symBinAddr: 0x100008684, symSize: 0x30 }
  - { offsetInCU: 0x10FE6, offset: 0x16A46, size: 0x8, addend: 0x0, symName: __ZNSt3__129_AllocatorDestroyRangeReverseINS_9allocatorINS_12basic_stringIcNS_11char_traitsIcEENS1_IcEEEEEENS_16reverse_iteratorIPS6_EEEC2B8ue170006ERS7_RSA_SD_, symObjAddr: 0x4AE0, symBinAddr: 0x1000086B4, symSize: 0x38 }
  - { offsetInCU: 0x11040, offset: 0x16AA0, size: 0x8, addend: 0x0, symName: __ZNSt3__119__to_address_helperINS_16reverse_iteratorIPNS_12basic_stringIcNS_11char_traitsIcEENS_9allocatorIcEEEEEEvE6__callB8ue170006ERKS9_, symObjAddr: 0x4B18, symBinAddr: 0x1000086EC, symSize: 0x4C }
  - { offsetInCU: 0x11062, offset: 0x16AC2, size: 0x8, addend: 0x0, symName: __ZNKSt3__116reverse_iteratorIPNS_12basic_stringIcNS_11char_traitsIcEENS_9allocatorIcEEEEEptB8ue170006Ev, symObjAddr: 0x4B64, symBinAddr: 0x100008738, symSize: 0x24 }
  - { offsetInCU: 0x11086, offset: 0x16AE6, size: 0x8, addend: 0x0, symName: __ZNSt3__128__exception_guard_exceptionsINS_29_AllocatorDestroyRangeReverseINS_9allocatorINS_12basic_stringIcNS_11char_traitsIcEENS2_IcEEEEEENS_16reverse_iteratorIPS7_EEEEED2B8ue170006Ev, symObjAddr: 0x4B88, symBinAddr: 0x10000875C, symSize: 0x48 }
  - { offsetInCU: 0x110AE, offset: 0x16B0E, size: 0x8, addend: 0x0, symName: __ZNKSt3__129_AllocatorDestroyRangeReverseINS_9allocatorINS_12basic_stringIcNS_11char_traitsIcEENS1_IcEEEEEENS_16reverse_iteratorIPS6_EEEclB8ue170006Ev, symObjAddr: 0x4BD0, symBinAddr: 0x1000087A4, symSize: 0xB4 }
  - { offsetInCU: 0x110D3, offset: 0x16B33, size: 0x8, addend: 0x0, symName: __ZNSt3__116reverse_iteratorINS0_IPNS_12basic_stringIcNS_11char_traitsIcEENS_9allocatorIcEEEEEEEC1B8ue170006ES8_, symObjAddr: 0x4CF4, symBinAddr: 0x1000088C8, symSize: 0x3C }
  - { offsetInCU: 0x11109, offset: 0x16B69, size: 0x8, addend: 0x0, symName: __ZNSt3__116reverse_iteratorINS0_IPNS_12basic_stringIcNS_11char_traitsIcEENS_9allocatorIcEEEEEEEppB8ue170006Ev, symObjAddr: 0x4DB4, symBinAddr: 0x100008988, symSize: 0x30 }
  - { offsetInCU: 0x1112D, offset: 0x16B8D, size: 0x8, addend: 0x0, symName: __ZNKSt3__116reverse_iteratorINS0_IPNS_12basic_stringIcNS_11char_traitsIcEENS_9allocatorIcEEEEEEE4baseB8ue170006Ev, symObjAddr: 0x4DE4, symBinAddr: 0x1000089B8, symSize: 0x24 }
  - { offsetInCU: 0x11156, offset: 0x16BB6, size: 0x8, addend: 0x0, symName: __ZNSt3__119__to_address_helperINS_16reverse_iteratorINS1_IPNS_12basic_stringIcNS_11char_traitsIcEENS_9allocatorIcEEEEEEEEvE6__callB8ue170006ERKSA_, symObjAddr: 0x4E08, symBinAddr: 0x1000089DC, symSize: 0x4C }
  - { offsetInCU: 0x11178, offset: 0x16BD8, size: 0x8, addend: 0x0, symName: __ZNKSt3__116reverse_iteratorINS0_IPNS_12basic_stringIcNS_11char_traitsIcEENS_9allocatorIcEEEEEEEptB8ue170006Ev, symObjAddr: 0x4E54, symBinAddr: 0x100008A28, symSize: 0x24 }
  - { offsetInCU: 0x1119C, offset: 0x16BFC, size: 0x8, addend: 0x0, symName: __ZNKSt3__116reverse_iteratorINS0_IPNS_12basic_stringIcNS_11char_traitsIcEENS_9allocatorIcEEEEEEEdeB8ue170006Ev, symObjAddr: 0x4E78, symBinAddr: 0x100008A4C, symSize: 0x34 }
  - { offsetInCU: 0x111CE, offset: 0x16C2E, size: 0x8, addend: 0x0, symName: __ZNSt3__116reverse_iteratorIPNS_12basic_stringIcNS_11char_traitsIcEENS_9allocatorIcEEEEEmmB8ue170006Ev, symObjAddr: 0x4EAC, symBinAddr: 0x100008A80, symSize: 0x20 }
  - { offsetInCU: 0x111F2, offset: 0x16C52, size: 0x8, addend: 0x0, symName: __ZNSt3__116reverse_iteratorINS0_IPNS_12basic_stringIcNS_11char_traitsIcEENS_9allocatorIcEEEEEEEC2B8ue170006ES8_, symObjAddr: 0x4ECC, symBinAddr: 0x100008AA0, symSize: 0x2C }
  - { offsetInCU: 0x11228, offset: 0x16C88, size: 0x8, addend: 0x0, symName: __ZNSt3__116reverse_iteratorIPNS_12basic_stringIcNS_11char_traitsIcEENS_9allocatorIcEEEEEC2B8ue170006ES7_, symObjAddr: 0x4EF8, symBinAddr: 0x100008ACC, symSize: 0x28 }
  - { offsetInCU: 0x1125E, offset: 0x16CBE, size: 0x8, addend: 0x0, symName: __ZNSt3__114__split_bufferINS_12basic_stringIcNS_11char_traitsIcEENS_9allocatorIcEEEERNS4_IS6_EEED2Ev, symObjAddr: 0x4F20, symBinAddr: 0x100008AF4, symSize: 0x80 }
  - { offsetInCU: 0x11289, offset: 0x16CE9, size: 0x8, addend: 0x0, symName: __ZNSt3__114__split_bufferINS_12basic_stringIcNS_11char_traitsIcEENS_9allocatorIcEEEERNS4_IS6_EEE5clearB8ue170006Ev, symObjAddr: 0x4FA0, symBinAddr: 0x100008B74, symSize: 0x28 }
  - { offsetInCU: 0x112AD, offset: 0x16D0D, size: 0x8, addend: 0x0, symName: __ZNKSt3__114__split_bufferINS_12basic_stringIcNS_11char_traitsIcEENS_9allocatorIcEEEERNS4_IS6_EEE8capacityB8ue170006Ev, symObjAddr: 0x4FC8, symBinAddr: 0x100008B9C, symSize: 0x40 }
  - { offsetInCU: 0x112D1, offset: 0x16D31, size: 0x8, addend: 0x0, symName: __ZNSt3__114__split_bufferINS_12basic_stringIcNS_11char_traitsIcEENS_9allocatorIcEEEERNS4_IS6_EEE17__destruct_at_endB8ue170006EPS6_, symObjAddr: 0x5008, symBinAddr: 0x100008BDC, symSize: 0x2C }
  - { offsetInCU: 0x11302, offset: 0x16D62, size: 0x8, addend: 0x0, symName: __ZNSt3__114__split_bufferINS_12basic_stringIcNS_11char_traitsIcEENS_9allocatorIcEEEERNS4_IS6_EEE17__destruct_at_endB8ue170006EPS6_NS_17integral_constantIbLb0EEE, symObjAddr: 0x5034, symBinAddr: 0x100008C08, symSize: 0x94 }
  - { offsetInCU: 0x11342, offset: 0x16DA2, size: 0x8, addend: 0x0, symName: __ZNKSt3__114__split_bufferINS_12basic_stringIcNS_11char_traitsIcEENS_9allocatorIcEEEERNS4_IS6_EEE9__end_capB8ue170006Ev, symObjAddr: 0x50C8, symBinAddr: 0x100008C9C, symSize: 0x28 }
  - { offsetInCU: 0x11366, offset: 0x16DC6, size: 0x8, addend: 0x0, symName: __ZNKSt3__117__compressed_pairIPNS_12basic_stringIcNS_11char_traitsIcEENS_9allocatorIcEEEERNS4_IS6_EEE5firstB8ue170006Ev, symObjAddr: 0x50F0, symBinAddr: 0x100008CC4, symSize: 0x24 }
  - { offsetInCU: 0x1138A, offset: 0x16DEA, size: 0x8, addend: 0x0, symName: __ZNSt3__16bitsetILm8EEC2B8ue170006IcNS_11char_traitsIcEENS_9allocatorIcEEEERKNS_12basic_stringIT_T0_T1_EENSB_9size_typeESE_S8_S8_, symObjAddr: 0x5204, symBinAddr: 0x100008CE8, symSize: 0xCC }
  - { offsetInCU: 0x11435, offset: 0x16E95, size: 0x8, addend: 0x0, symName: __ZNSt3__18__bitsetILm1ELm8EEC2Ev, symObjAddr: 0x52D0, symBinAddr: 0x100008DB4, symSize: 0x18 }
  - { offsetInCU: 0x11460, offset: 0x16EC0, size: 0x8, addend: 0x0, symName: __ZNSt3__16bitsetILm8EE23__init_from_string_viewB8ue170006IcNS_11char_traitsIcEEEEvNS_17basic_string_viewIT_T0_EES6_S6_, symObjAddr: 0x534C, symBinAddr: 0x100008E30, symSize: 0x1B8 }
  - { offsetInCU: 0x1151D, offset: 0x16F7D, size: 0x8, addend: 0x0, symName: __ZNSt3__117basic_string_viewIcNS_11char_traitsIcEEEC1B8ue170006EPKcm, symObjAddr: 0x5504, symBinAddr: 0x100008FE8, symSize: 0x3C }
  - { offsetInCU: 0x11563, offset: 0x16FC3, size: 0x8, addend: 0x0, symName: __ZNSt12out_of_rangeC1B8ue170006EPKc, symObjAddr: 0x5540, symBinAddr: 0x100009024, symSize: 0x34 }
  - { offsetInCU: 0x11599, offset: 0x16FF9, size: 0x8, addend: 0x0, symName: __ZNSt12out_of_rangeC2B8ue170006EPKc, symObjAddr: 0x5574, symBinAddr: 0x100009058, symSize: 0x4C }
  - { offsetInCU: 0x115CF, offset: 0x1702F, size: 0x8, addend: 0x0, symName: __ZNKSt3__117basic_string_viewIcNS_11char_traitsIcEEE4sizeB8ue170006Ev, symObjAddr: 0x55C0, symBinAddr: 0x1000090A4, symSize: 0x18 }
  - { offsetInCU: 0x115F3, offset: 0x17053, size: 0x8, addend: 0x0, symName: __ZNSt3__111char_traitsIcE2eqEcc, symObjAddr: 0x55D8, symBinAddr: 0x1000090BC, symSize: 0x28 }
  - { offsetInCU: 0x11623, offset: 0x17083, size: 0x8, addend: 0x0, symName: __ZNKSt3__117basic_string_viewIcNS_11char_traitsIcEEEixB8ue170006Em, symObjAddr: 0x5600, symBinAddr: 0x1000090E4, symSize: 0x24 }
  - { offsetInCU: 0x11656, offset: 0x170B6, size: 0x8, addend: 0x0, symName: __ZNSt3__16bitsetILm8EEixB8ue170006Em, symObjAddr: 0x5688, symBinAddr: 0x10000916C, symSize: 0x3C }
  - { offsetInCU: 0x11689, offset: 0x170E9, size: 0x8, addend: 0x0, symName: __ZNSt3__115__bit_referenceINS_8__bitsetILm1ELm8EEELb1EEaSB8ue170006Eb, symObjAddr: 0x56C4, symBinAddr: 0x1000091A8, symSize: 0x6C }
  - { offsetInCU: 0x116BB, offset: 0x1711B, size: 0x8, addend: 0x0, symName: __ZNSt3__18__bitsetILm1ELm8EE11__make_iterB8ue170006Em, symObjAddr: 0x579C, symBinAddr: 0x100009280, symSize: 0x60 }
  - { offsetInCU: 0x116EE, offset: 0x1714E, size: 0x8, addend: 0x0, symName: __ZNSt16invalid_argumentC1B8ue170006EPKc, symObjAddr: 0x57FC, symBinAddr: 0x1000092E0, symSize: 0x34 }
  - { offsetInCU: 0x11724, offset: 0x17184, size: 0x8, addend: 0x0, symName: __ZNSt16invalid_argumentC2B8ue170006EPKc, symObjAddr: 0x5830, symBinAddr: 0x100009314, symSize: 0x4C }
  - { offsetInCU: 0x1175A, offset: 0x171BA, size: 0x8, addend: 0x0, symName: __ZNSt3__18__bitsetILm1ELm8EE10__make_refB8ue170006Em, symObjAddr: 0x587C, symBinAddr: 0x100009360, symSize: 0x40 }
  - { offsetInCU: 0x1178D, offset: 0x171ED, size: 0x8, addend: 0x0, symName: __ZNSt3__115__bit_referenceINS_8__bitsetILm1ELm8EEELb1EEC1B8ue170006EPmm, symObjAddr: 0x58BC, symBinAddr: 0x1000093A0, symSize: 0x3C }
  - { offsetInCU: 0x117D1, offset: 0x17231, size: 0x8, addend: 0x0, symName: __ZNSt3__115__bit_referenceINS_8__bitsetILm1ELm8EEELb1EEC2B8ue170006EPmm, symObjAddr: 0x58F8, symBinAddr: 0x1000093DC, symSize: 0x2C }
  - { offsetInCU: 0x11815, offset: 0x17275, size: 0x8, addend: 0x0, symName: __ZNSt3__114__bit_iteratorINS_8__bitsetILm1ELm8EEELb0ELm0EEC1B8ue170006ERKS3_, symObjAddr: 0x59B8, symBinAddr: 0x10000949C, symSize: 0x34 }
  - { offsetInCU: 0x1184C, offset: 0x172AC, size: 0x8, addend: 0x0, symName: __ZNSt3__114__bit_iteratorINS_8__bitsetILm1ELm8EEELb0ELm0EEC2B8ue170006ERKS3_, symObjAddr: 0x5E68, symBinAddr: 0x10000994C, symSize: 0x30 }
  - { offsetInCU: 0x11883, offset: 0x172E3, size: 0x8, addend: 0x0, symName: __ZNSt3__114__bit_iteratorINS_8__bitsetILm1ELm8EEELb0ELm0EEC1B8ue170006EPmj, symObjAddr: 0x5E98, symBinAddr: 0x10000997C, symSize: 0x3C }
  - { offsetInCU: 0x118C9, offset: 0x17329, size: 0x8, addend: 0x0, symName: __ZNSt3__114__bit_iteratorINS_8__bitsetILm1ELm8EEELb0ELm0EEC2B8ue170006EPmj, symObjAddr: 0x5ED4, symBinAddr: 0x1000099B8, symSize: 0x2C }
  - { offsetInCU: 0x1190F, offset: 0x1736F, size: 0x8, addend: 0x0, symName: __ZNSt3__117basic_string_viewIcNS_11char_traitsIcEEEC2B8ue170006EPKcm, symObjAddr: 0x5F00, symBinAddr: 0x1000099E4, symSize: 0x2C }
  - { offsetInCU: 0x11955, offset: 0x173B5, size: 0x8, addend: 0x0, symName: __ZNKSt3__18__bitsetILm1ELm8EE8to_ulongEv, symObjAddr: 0x5F2C, symBinAddr: 0x100009A10, symSize: 0x18 }
  - { offsetInCU: 0x1197C, offset: 0x173DC, size: 0x8, addend: 0x0, symName: __ZNSt3__16bitsetILm64EEC2B8ue170006IcNS_11char_traitsIcEENS_9allocatorIcEEEERKNS_12basic_stringIT_T0_T1_EENSB_9size_typeESE_S8_S8_, symObjAddr: 0x5F44, symBinAddr: 0x100009A28, symSize: 0xCC }
  - { offsetInCU: 0x11A27, offset: 0x17487, size: 0x8, addend: 0x0, symName: __ZNSt3__18__bitsetILm1ELm64EEC2Ev, symObjAddr: 0x6010, symBinAddr: 0x100009AF4, symSize: 0x18 }
  - { offsetInCU: 0x11A52, offset: 0x174B2, size: 0x8, addend: 0x0, symName: __ZNSt3__16bitsetILm64EE23__init_from_string_viewB8ue170006IcNS_11char_traitsIcEEEEvNS_17basic_string_viewIT_T0_EES6_S6_, symObjAddr: 0x6028, symBinAddr: 0x100009B0C, symSize: 0x1B8 }
  - { offsetInCU: 0x11B0F, offset: 0x1756F, size: 0x8, addend: 0x0, symName: __ZNSt3__16bitsetILm64EEixB8ue170006Em, symObjAddr: 0x61E0, symBinAddr: 0x100009CC4, symSize: 0x3C }
  - { offsetInCU: 0x11B42, offset: 0x175A2, size: 0x8, addend: 0x0, symName: __ZNSt3__115__bit_referenceINS_8__bitsetILm1ELm64EEELb1EEaSB8ue170006Eb, symObjAddr: 0x621C, symBinAddr: 0x100009D00, symSize: 0x6C }
  - { offsetInCU: 0x11B74, offset: 0x175D4, size: 0x8, addend: 0x0, symName: __ZNSt3__18__bitsetILm1ELm64EE11__make_iterB8ue170006Em, symObjAddr: 0x62F4, symBinAddr: 0x100009DD8, symSize: 0x60 }
  - { offsetInCU: 0x11BA7, offset: 0x17607, size: 0x8, addend: 0x0, symName: __ZNSt3__18__bitsetILm1ELm64EE10__make_refB8ue170006Em, symObjAddr: 0x6354, symBinAddr: 0x100009E38, symSize: 0x40 }
  - { offsetInCU: 0x11BDA, offset: 0x1763A, size: 0x8, addend: 0x0, symName: __ZNSt3__115__bit_referenceINS_8__bitsetILm1ELm64EEELb1EEC1B8ue170006EPmm, symObjAddr: 0x6394, symBinAddr: 0x100009E78, symSize: 0x3C }
  - { offsetInCU: 0x11C1E, offset: 0x1767E, size: 0x8, addend: 0x0, symName: __ZNSt3__115__bit_referenceINS_8__bitsetILm1ELm64EEELb1EEC2B8ue170006EPmm, symObjAddr: 0x63D0, symBinAddr: 0x100009EB4, symSize: 0x2C }
  - { offsetInCU: 0x11C62, offset: 0x176C2, size: 0x8, addend: 0x0, symName: __ZNSt3__114__bit_iteratorINS_8__bitsetILm1ELm64EEELb0ELm0EEC1B8ue170006ERKS3_, symObjAddr: 0x6490, symBinAddr: 0x100009F74, symSize: 0x34 }
  - { offsetInCU: 0x11C99, offset: 0x176F9, size: 0x8, addend: 0x0, symName: __ZNSt3__114__bit_iteratorINS_8__bitsetILm1ELm64EEELb0ELm0EEC2B8ue170006ERKS3_, symObjAddr: 0x67C8, symBinAddr: 0x10000A2AC, symSize: 0x30 }
  - { offsetInCU: 0x11CD0, offset: 0x17730, size: 0x8, addend: 0x0, symName: __ZNSt3__114__bit_iteratorINS_8__bitsetILm1ELm64EEELb0ELm0EEC1B8ue170006EPmj, symObjAddr: 0x67F8, symBinAddr: 0x10000A2DC, symSize: 0x3C }
  - { offsetInCU: 0x11D16, offset: 0x17776, size: 0x8, addend: 0x0, symName: __ZNSt3__114__bit_iteratorINS_8__bitsetILm1ELm64EEELb0ELm0EEC2B8ue170006EPmj, symObjAddr: 0x6834, symBinAddr: 0x10000A318, symSize: 0x2C }
  - { offsetInCU: 0x11D5C, offset: 0x177BC, size: 0x8, addend: 0x0, symName: __ZNKSt3__18__bitsetILm1ELm64EE8to_ulongEv, symObjAddr: 0x6860, symBinAddr: 0x10000A344, symSize: 0x18 }
  - { offsetInCU: 0x11D83, offset: 0x177E3, size: 0x8, addend: 0x0, symName: __ZNSt3__16bitsetILm4EEC2B8ue170006Ey, symObjAddr: 0x6878, symBinAddr: 0x10000A35C, symSize: 0x34 }
  - { offsetInCU: 0x11DBA, offset: 0x1781A, size: 0x8, addend: 0x0, symName: __ZNSt3__18__bitsetILm1ELm4EEC2Ey, symObjAddr: 0x68AC, symBinAddr: 0x10000A390, symSize: 0x24 }
  - { offsetInCU: 0x11DF3, offset: 0x17853, size: 0x8, addend: 0x0, symName: __ZNKSt3__16bitsetILm4EE9to_stringB8ue170006IcNS_11char_traitsIcEENS_9allocatorIcEEEENS_12basic_stringIT_T0_T1_EES8_S8_, symObjAddr: 0x68D0, symBinAddr: 0x10000A3B4, symSize: 0x140 }
  - { offsetInCU: 0x11E79, offset: 0x178D9, size: 0x8, addend: 0x0, symName: __ZNKSt3__16bitsetILm4EEixB8ue170006Em, symObjAddr: 0x6A10, symBinAddr: 0x10000A4F4, symSize: 0x3C }
  - { offsetInCU: 0x11EAC, offset: 0x1790C, size: 0x8, addend: 0x0, symName: __ZNKSt3__121__bit_const_referenceINS_8__bitsetILm1ELm4EEEEcvbB8ue170006Ev, symObjAddr: 0x6A4C, symBinAddr: 0x10000A530, symSize: 0x2C }
  - { offsetInCU: 0x11ED0, offset: 0x17930, size: 0x8, addend: 0x0, symName: __ZNKSt3__18__bitsetILm1ELm4EE10__make_refB8ue170006Em, symObjAddr: 0x6A78, symBinAddr: 0x10000A55C, symSize: 0x40 }
  - { offsetInCU: 0x11F03, offset: 0x17963, size: 0x8, addend: 0x0, symName: __ZNSt3__121__bit_const_referenceINS_8__bitsetILm1ELm4EEEEC1B8ue170006EPKmm, symObjAddr: 0x6AB8, symBinAddr: 0x10000A59C, symSize: 0x3C }
  - { offsetInCU: 0x11F47, offset: 0x179A7, size: 0x8, addend: 0x0, symName: __ZNSt3__121__bit_const_referenceINS_8__bitsetILm1ELm4EEEEC2B8ue170006EPKmm, symObjAddr: 0x6AF4, symBinAddr: 0x10000A5D8, symSize: 0x2C }
  - { offsetInCU: 0x11F8B, offset: 0x179EB, size: 0x8, addend: 0x0, symName: __ZNSt3__19basic_iosIcNS_11char_traitsIcEEEC2B8ue170006Ev, symObjAddr: 0x6B20, symBinAddr: 0x10000A604, symSize: 0x44 }
  - { offsetInCU: 0x11FB3, offset: 0x17A13, size: 0x8, addend: 0x0, symName: __ZNSt3__113basic_istreamIcNS_11char_traitsIcEEEC2B8ue170006EPNS_15basic_streambufIcS2_EE, symObjAddr: 0x6B64, symBinAddr: 0x10000A648, symSize: 0x64 }
  - { offsetInCU: 0x11FF4, offset: 0x17A54, size: 0x8, addend: 0x0, symName: __ZNSt3__113basic_filebufIcNS_11char_traitsIcEEE4openERKNS_12basic_stringIcS2_NS_9allocatorIcEEEEj, symObjAddr: 0x6BC8, symBinAddr: 0x10000A6AC, symSize: 0x44 }
  - { offsetInCU: 0x12038, offset: 0x17A98, size: 0x8, addend: 0x0, symName: __ZNSt3__19basic_iosIcNS_11char_traitsIcEEE8setstateB8ue170006Ej, symObjAddr: 0x6C0C, symBinAddr: 0x10000A6F0, symSize: 0x2C }
  - { offsetInCU: 0x1206B, offset: 0x17ACB, size: 0x8, addend: 0x0, symName: __ZNSt3__18ios_baseC2B8ue170006Ev, symObjAddr: 0x6C38, symBinAddr: 0x10000A71C, symSize: 0x24 }
  - { offsetInCU: 0x12092, offset: 0x17AF2, size: 0x8, addend: 0x0, symName: __ZNSt3__19basic_iosIcNS_11char_traitsIcEEE4initB8ue170006EPNS_15basic_streambufIcS2_EE, symObjAddr: 0x6C5C, symBinAddr: 0x10000A740, symSize: 0x44 }
  - { offsetInCU: 0x120C9, offset: 0x17B29, size: 0x8, addend: 0x0, symName: __ZNSt3__111char_traitsIcE3eofB8ue170006Ev, symObjAddr: 0x6CA0, symBinAddr: 0x10000A784, symSize: 0x8 }
  - { offsetInCU: 0x120DD, offset: 0x17B3D, size: 0x8, addend: 0x0, symName: __ZNKSt3__112basic_stringIcNS_11char_traitsIcEENS_9allocatorIcEEE5c_strB8ue170006Ev, symObjAddr: 0x6CA8, symBinAddr: 0x10000A78C, symSize: 0x24 }
  - { offsetInCU: 0x12100, offset: 0x17B60, size: 0x8, addend: 0x0, symName: __ZNSt3__18ios_base8setstateB8ue170006Ej, symObjAddr: 0x6CCC, symBinAddr: 0x10000A7B0, symSize: 0x34 }
  - { offsetInCU: 0x12137, offset: 0x17B97, size: 0x8, addend: 0x0, symName: __ZNSt3__114basic_iostreamIcNS_11char_traitsIcEEEC2B8ue170006EPNS_15basic_streambufIcS2_EE, symObjAddr: 0x6D00, symBinAddr: 0x10000A7E4, symSize: 0xB4 }
  - { offsetInCU: 0x1217A, offset: 0x17BDA, size: 0x8, addend: 0x0, symName: __ZNSt3__115basic_stringbufIcNS_11char_traitsIcEENS_9allocatorIcEEEC1B8ue170006Ej, symObjAddr: 0x6DB4, symBinAddr: 0x10000A898, symSize: 0x34 }
  - { offsetInCU: 0x121B1, offset: 0x17C11, size: 0x8, addend: 0x0, symName: __ZNSt3__113basic_ostreamIcNS_11char_traitsIcEEEC2B8ue170006Ev, symObjAddr: 0x6DE8, symBinAddr: 0x10000A8CC, symSize: 0x34 }
  - { offsetInCU: 0x121E5, offset: 0x17C45, size: 0x8, addend: 0x0, symName: __ZNSt3__115basic_stringbufIcNS_11char_traitsIcEENS_9allocatorIcEEEC2B8ue170006Ej, symObjAddr: 0x6E1C, symBinAddr: 0x10000A900, symSize: 0x90 }
  - { offsetInCU: 0x1221C, offset: 0x17C7C, size: 0x8, addend: 0x0, symName: __ZNSt3__16bitsetILm48EEC2B8ue170006IcNS_11char_traitsIcEENS_9allocatorIcEEEERKNS_12basic_stringIT_T0_T1_EENSB_9size_typeESE_S8_S8_, symObjAddr: 0x6EAC, symBinAddr: 0x10000A990, symSize: 0xCC }
  - { offsetInCU: 0x122C7, offset: 0x17D27, size: 0x8, addend: 0x0, symName: __ZNSt3__18__bitsetILm1ELm48EEC2Ev, symObjAddr: 0x6F78, symBinAddr: 0x10000AA5C, symSize: 0x18 }
  - { offsetInCU: 0x122F2, offset: 0x17D52, size: 0x8, addend: 0x0, symName: __ZNSt3__16bitsetILm48EE23__init_from_string_viewB8ue170006IcNS_11char_traitsIcEEEEvNS_17basic_string_viewIT_T0_EES6_S6_, symObjAddr: 0x6F90, symBinAddr: 0x10000AA74, symSize: 0x1B8 }
  - { offsetInCU: 0x123AF, offset: 0x17E0F, size: 0x8, addend: 0x0, symName: __ZNSt3__16bitsetILm48EEixB8ue170006Em, symObjAddr: 0x7148, symBinAddr: 0x10000AC2C, symSize: 0x3C }
  - { offsetInCU: 0x123E2, offset: 0x17E42, size: 0x8, addend: 0x0, symName: __ZNSt3__115__bit_referenceINS_8__bitsetILm1ELm48EEELb1EEaSB8ue170006Eb, symObjAddr: 0x7184, symBinAddr: 0x10000AC68, symSize: 0x6C }
  - { offsetInCU: 0x12414, offset: 0x17E74, size: 0x8, addend: 0x0, symName: __ZNSt3__18__bitsetILm1ELm48EE11__make_iterB8ue170006Em, symObjAddr: 0x725C, symBinAddr: 0x10000AD40, symSize: 0x60 }
  - { offsetInCU: 0x12447, offset: 0x17EA7, size: 0x8, addend: 0x0, symName: __ZNSt3__18__bitsetILm1ELm48EE10__make_refB8ue170006Em, symObjAddr: 0x72BC, symBinAddr: 0x10000ADA0, symSize: 0x40 }
  - { offsetInCU: 0x1247A, offset: 0x17EDA, size: 0x8, addend: 0x0, symName: __ZNSt3__115__bit_referenceINS_8__bitsetILm1ELm48EEELb1EEC1B8ue170006EPmm, symObjAddr: 0x72FC, symBinAddr: 0x10000ADE0, symSize: 0x3C }
  - { offsetInCU: 0x124BE, offset: 0x17F1E, size: 0x8, addend: 0x0, symName: __ZNSt3__115__bit_referenceINS_8__bitsetILm1ELm48EEELb1EEC2B8ue170006EPmm, symObjAddr: 0x7338, symBinAddr: 0x10000AE1C, symSize: 0x2C }
  - { offsetInCU: 0x12502, offset: 0x17F62, size: 0x8, addend: 0x0, symName: __ZNSt3__114__bit_iteratorINS_8__bitsetILm1ELm48EEELb0ELm0EEC1B8ue170006ERKS3_, symObjAddr: 0x73F8, symBinAddr: 0x10000AEDC, symSize: 0x34 }
  - { offsetInCU: 0x12539, offset: 0x17F99, size: 0x8, addend: 0x0, symName: __ZNSt3__114__bit_iteratorINS_8__bitsetILm1ELm48EEELb0ELm0EEC2B8ue170006ERKS3_, symObjAddr: 0x7730, symBinAddr: 0x10000B214, symSize: 0x30 }
  - { offsetInCU: 0x12570, offset: 0x17FD0, size: 0x8, addend: 0x0, symName: __ZNSt3__114__bit_iteratorINS_8__bitsetILm1ELm48EEELb0ELm0EEC1B8ue170006EPmj, symObjAddr: 0x7760, symBinAddr: 0x10000B244, symSize: 0x3C }
  - { offsetInCU: 0x125B6, offset: 0x18016, size: 0x8, addend: 0x0, symName: __ZNSt3__114__bit_iteratorINS_8__bitsetILm1ELm48EEELb0ELm0EEC2B8ue170006EPmj, symObjAddr: 0x779C, symBinAddr: 0x10000B280, symSize: 0x2C }
  - { offsetInCU: 0x125FC, offset: 0x1805C, size: 0x8, addend: 0x0, symName: __ZNSt3__18__bitsetILm1ELm48EEeOB8ue170006ERKS1_, symObjAddr: 0x77C8, symBinAddr: 0x10000B2AC, symSize: 0x2C }
  - { offsetInCU: 0x12631, offset: 0x18091, size: 0x8, addend: 0x0, symName: __ZNKSt3__16bitsetILm48EE9to_stringB8ue170006IcNS_11char_traitsIcEENS_9allocatorIcEEEENS_12basic_stringIT_T0_T1_EES8_S8_, symObjAddr: 0x77F4, symBinAddr: 0x10000B2D8, symSize: 0x140 }
  - { offsetInCU: 0x126B7, offset: 0x18117, size: 0x8, addend: 0x0, symName: __ZNKSt3__16bitsetILm48EEixB8ue170006Em, symObjAddr: 0x7934, symBinAddr: 0x10000B418, symSize: 0x3C }
  - { offsetInCU: 0x126EA, offset: 0x1814A, size: 0x8, addend: 0x0, symName: __ZNKSt3__121__bit_const_referenceINS_8__bitsetILm1ELm48EEEEcvbB8ue170006Ev, symObjAddr: 0x7970, symBinAddr: 0x10000B454, symSize: 0x2C }
  - { offsetInCU: 0x1270E, offset: 0x1816E, size: 0x8, addend: 0x0, symName: __ZNKSt3__18__bitsetILm1ELm48EE10__make_refB8ue170006Em, symObjAddr: 0x799C, symBinAddr: 0x10000B480, symSize: 0x40 }
  - { offsetInCU: 0x12741, offset: 0x181A1, size: 0x8, addend: 0x0, symName: __ZNSt3__121__bit_const_referenceINS_8__bitsetILm1ELm48EEEEC1B8ue170006EPKmm, symObjAddr: 0x79DC, symBinAddr: 0x10000B4C0, symSize: 0x3C }
  - { offsetInCU: 0x12785, offset: 0x181E5, size: 0x8, addend: 0x0, symName: __ZNSt3__121__bit_const_referenceINS_8__bitsetILm1ELm48EEEEC2B8ue170006EPKmm, symObjAddr: 0x7A18, symBinAddr: 0x10000B4FC, symSize: 0x2C }
  - { offsetInCU: 0x127C9, offset: 0x18229, size: 0x8, addend: 0x0, symName: __ZNSt3__16bitsetILm32EEC2B8ue170006IcNS_11char_traitsIcEENS_9allocatorIcEEEERKNS_12basic_stringIT_T0_T1_EENSB_9size_typeESE_S8_S8_, symObjAddr: 0x7A44, symBinAddr: 0x10000B528, symSize: 0xCC }
  - { offsetInCU: 0x12874, offset: 0x182D4, size: 0x8, addend: 0x0, symName: __ZNSt3__18__bitsetILm1ELm32EEC2Ev, symObjAddr: 0x7B10, symBinAddr: 0x10000B5F4, symSize: 0x18 }
  - { offsetInCU: 0x1289F, offset: 0x182FF, size: 0x8, addend: 0x0, symName: __ZNSt3__16bitsetILm32EE23__init_from_string_viewB8ue170006IcNS_11char_traitsIcEEEEvNS_17basic_string_viewIT_T0_EES6_S6_, symObjAddr: 0x7B28, symBinAddr: 0x10000B60C, symSize: 0x1B8 }
  - { offsetInCU: 0x1295C, offset: 0x183BC, size: 0x8, addend: 0x0, symName: __ZNSt3__16bitsetILm32EEixB8ue170006Em, symObjAddr: 0x7CE0, symBinAddr: 0x10000B7C4, symSize: 0x3C }
  - { offsetInCU: 0x1298F, offset: 0x183EF, size: 0x8, addend: 0x0, symName: __ZNSt3__115__bit_referenceINS_8__bitsetILm1ELm32EEELb1EEaSB8ue170006Eb, symObjAddr: 0x7D1C, symBinAddr: 0x10000B800, symSize: 0x6C }
  - { offsetInCU: 0x129C1, offset: 0x18421, size: 0x8, addend: 0x0, symName: __ZNSt3__18__bitsetILm1ELm32EE11__make_iterB8ue170006Em, symObjAddr: 0x7DF4, symBinAddr: 0x10000B8D8, symSize: 0x60 }
  - { offsetInCU: 0x129F4, offset: 0x18454, size: 0x8, addend: 0x0, symName: __ZNSt3__18__bitsetILm1ELm32EE10__make_refB8ue170006Em, symObjAddr: 0x7E54, symBinAddr: 0x10000B938, symSize: 0x40 }
  - { offsetInCU: 0x12A27, offset: 0x18487, size: 0x8, addend: 0x0, symName: __ZNSt3__115__bit_referenceINS_8__bitsetILm1ELm32EEELb1EEC1B8ue170006EPmm, symObjAddr: 0x7E94, symBinAddr: 0x10000B978, symSize: 0x3C }
  - { offsetInCU: 0x12A6B, offset: 0x184CB, size: 0x8, addend: 0x0, symName: __ZNSt3__115__bit_referenceINS_8__bitsetILm1ELm32EEELb1EEC2B8ue170006EPmm, symObjAddr: 0x7ED0, symBinAddr: 0x10000B9B4, symSize: 0x2C }
  - { offsetInCU: 0x12AAF, offset: 0x1850F, size: 0x8, addend: 0x0, symName: __ZNSt3__114__bit_iteratorINS_8__bitsetILm1ELm32EEELb0ELm0EEC1B8ue170006ERKS3_, symObjAddr: 0x7F90, symBinAddr: 0x10000BA74, symSize: 0x34 }
  - { offsetInCU: 0x12AE6, offset: 0x18546, size: 0x8, addend: 0x0, symName: __ZNSt3__114__bit_iteratorINS_8__bitsetILm1ELm32EEELb0ELm0EEC2B8ue170006ERKS3_, symObjAddr: 0x82C8, symBinAddr: 0x10000BDAC, symSize: 0x30 }
  - { offsetInCU: 0x12B1D, offset: 0x1857D, size: 0x8, addend: 0x0, symName: __ZNSt3__114__bit_iteratorINS_8__bitsetILm1ELm32EEELb0ELm0EEC1B8ue170006EPmj, symObjAddr: 0x82F8, symBinAddr: 0x10000BDDC, symSize: 0x3C }
  - { offsetInCU: 0x12B63, offset: 0x185C3, size: 0x8, addend: 0x0, symName: __ZNSt3__114__bit_iteratorINS_8__bitsetILm1ELm32EEELb0ELm0EEC2B8ue170006EPmj, symObjAddr: 0x8334, symBinAddr: 0x10000BE18, symSize: 0x2C }
  - { offsetInCU: 0x12BA9, offset: 0x18609, size: 0x8, addend: 0x0, symName: __ZNSt3__18__bitsetILm1ELm32EEeOB8ue170006ERKS1_, symObjAddr: 0x8360, symBinAddr: 0x10000BE44, symSize: 0x2C }
  - { offsetInCU: 0x12BDE, offset: 0x1863E, size: 0x8, addend: 0x0, symName: __ZNKSt3__16bitsetILm32EE9to_stringB8ue170006IcNS_11char_traitsIcEENS_9allocatorIcEEEENS_12basic_stringIT_T0_T1_EES8_S8_, symObjAddr: 0x838C, symBinAddr: 0x10000BE70, symSize: 0x140 }
  - { offsetInCU: 0x12C64, offset: 0x186C4, size: 0x8, addend: 0x0, symName: __ZNKSt3__16bitsetILm32EEixB8ue170006Em, symObjAddr: 0x84CC, symBinAddr: 0x10000BFB0, symSize: 0x3C }
  - { offsetInCU: 0x12C97, offset: 0x186F7, size: 0x8, addend: 0x0, symName: __ZNKSt3__121__bit_const_referenceINS_8__bitsetILm1ELm32EEEEcvbB8ue170006Ev, symObjAddr: 0x8508, symBinAddr: 0x10000BFEC, symSize: 0x2C }
  - { offsetInCU: 0x12CBB, offset: 0x1871B, size: 0x8, addend: 0x0, symName: __ZNKSt3__18__bitsetILm1ELm32EE10__make_refB8ue170006Em, symObjAddr: 0x8534, symBinAddr: 0x10000C018, symSize: 0x40 }
  - { offsetInCU: 0x12CEE, offset: 0x1874E, size: 0x8, addend: 0x0, symName: __ZNSt3__121__bit_const_referenceINS_8__bitsetILm1ELm32EEEEC1B8ue170006EPKmm, symObjAddr: 0x8574, symBinAddr: 0x10000C058, symSize: 0x3C }
  - { offsetInCU: 0x12D32, offset: 0x18792, size: 0x8, addend: 0x0, symName: __ZNSt3__121__bit_const_referenceINS_8__bitsetILm1ELm32EEEEC2B8ue170006EPKmm, symObjAddr: 0x85B0, symBinAddr: 0x10000C094, symSize: 0x2C }
  - { offsetInCU: 0x12D76, offset: 0x187D6, size: 0x8, addend: 0x0, symName: __ZNSt3__18__bitsetILm1ELm64EEeOB8ue170006ERKS1_, symObjAddr: 0x85DC, symBinAddr: 0x10000C0C0, symSize: 0x2C }
  - { offsetInCU: 0x12DAB, offset: 0x1880B, size: 0x8, addend: 0x0, symName: __ZNKSt3__16bitsetILm64EE9to_stringB8ue170006IcNS_11char_traitsIcEENS_9allocatorIcEEEENS_12basic_stringIT_T0_T1_EES8_S8_, symObjAddr: 0x8608, symBinAddr: 0x10000C0EC, symSize: 0x140 }
  - { offsetInCU: 0x12E31, offset: 0x18891, size: 0x8, addend: 0x0, symName: __ZNKSt3__16bitsetILm64EEixB8ue170006Em, symObjAddr: 0x8748, symBinAddr: 0x10000C22C, symSize: 0x3C }
  - { offsetInCU: 0x12E64, offset: 0x188C4, size: 0x8, addend: 0x0, symName: __ZNKSt3__121__bit_const_referenceINS_8__bitsetILm1ELm64EEEEcvbB8ue170006Ev, symObjAddr: 0x8784, symBinAddr: 0x10000C268, symSize: 0x2C }
  - { offsetInCU: 0x12E88, offset: 0x188E8, size: 0x8, addend: 0x0, symName: __ZNKSt3__18__bitsetILm1ELm64EE10__make_refB8ue170006Em, symObjAddr: 0x87B0, symBinAddr: 0x10000C294, symSize: 0x40 }
  - { offsetInCU: 0x12EBB, offset: 0x1891B, size: 0x8, addend: 0x0, symName: __ZNSt3__121__bit_const_referenceINS_8__bitsetILm1ELm64EEEEC1B8ue170006EPKmm, symObjAddr: 0x87F0, symBinAddr: 0x10000C2D4, symSize: 0x3C }
  - { offsetInCU: 0x12EFF, offset: 0x1895F, size: 0x8, addend: 0x0, symName: __ZNSt3__121__bit_const_referenceINS_8__bitsetILm1ELm64EEEEC2B8ue170006EPKmm, symObjAddr: 0x882C, symBinAddr: 0x10000C310, symSize: 0x2C }
  - { offsetInCU: 0x12F48, offset: 0x189A8, size: 0x8, addend: 0x0, symName: __ZNSt3__16vectorINS_12basic_stringIcNS_11char_traitsIcEENS_9allocatorIcEEEENS4_IS6_EEE22__construct_one_at_endB8ue170006IJS6_EEEvDpOT_, symObjAddr: 0x8858, symBinAddr: 0x10000C33C, symSize: 0x98 }
  - { offsetInCU: 0x12F94, offset: 0x189F4, size: 0x8, addend: 0x0, symName: __ZNSt3__16vectorINS_12basic_stringIcNS_11char_traitsIcEENS_9allocatorIcEEEENS4_IS6_EEE21__push_back_slow_pathIS6_EEvOT_, symObjAddr: 0x88F0, symBinAddr: 0x10000C3D4, symSize: 0xE0 }
  - { offsetInCU: 0x12FF2, offset: 0x18A52, size: 0x8, addend: 0x0, symName: __ZNSt3__116allocator_traitsINS_9allocatorINS_12basic_stringIcNS_11char_traitsIcEENS1_IcEEEEEEE9constructB8ue170006IS6_JS6_EvEEvRS7_PT_DpOT0_, symObjAddr: 0x89D0, symBinAddr: 0x10000C4B4, symSize: 0x34 }
  - { offsetInCU: 0x13048, offset: 0x18AA8, size: 0x8, addend: 0x0, symName: __ZNSt3__19allocatorINS_12basic_stringIcNS_11char_traitsIcEENS0_IcEEEEE9constructB8ue170006IS5_JS5_EEEvPT_DpOT0_, symObjAddr: 0x8A04, symBinAddr: 0x10000C4E8, symSize: 0x30 }
  - { offsetInCU: 0x1309C, offset: 0x18AFC, size: 0x8, addend: 0x0, symName: __ZNSt3__19basic_iosIcNS_11char_traitsIcEEE5clearB8ue170006Ej, symObjAddr: 0x8A34, symBinAddr: 0x10000C518, symSize: 0x2C }
  - { offsetInCU: 0x130CF, offset: 0x18B2F, size: 0x8, addend: 0x0, symName: __ZNKSt3__113basic_filebufIcNS_11char_traitsIcEEE7is_openEv, symObjAddr: 0x8A60, symBinAddr: 0x10000C544, symSize: 0x24 }
  - { offsetInCU: 0x13114, offset: 0x18B74, size: 0x8, addend: 0x0, symName: __ZNKSt3__113basic_ostreamIcNS_11char_traitsIcEEE6sentrycvbB8ue170006Ev, symObjAddr: 0x8C78, symBinAddr: 0x10000C75C, symSize: 0x1C }
  - { offsetInCU: 0x13138, offset: 0x18B98, size: 0x8, addend: 0x0, symName: __ZNSt3__119ostreambuf_iteratorIcNS_11char_traitsIcEEEC1B8ue170006ERNS_13basic_ostreamIcS2_EE, symObjAddr: 0x8EDC, symBinAddr: 0x10000C9C0, symSize: 0x34 }
  - { offsetInCU: 0x1316E, offset: 0x18BCE, size: 0x8, addend: 0x0, symName: __ZNKSt3__18ios_base5flagsB8ue170006Ev, symObjAddr: 0x8F10, symBinAddr: 0x10000C9F4, symSize: 0x18 }
  - { offsetInCU: 0x13194, offset: 0x18BF4, size: 0x8, addend: 0x0, symName: __ZNKSt3__19basic_iosIcNS_11char_traitsIcEEE4fillB8ue170006Ev, symObjAddr: 0x8F28, symBinAddr: 0x10000CA0C, symSize: 0x64 }
  - { offsetInCU: 0x131BC, offset: 0x18C1C, size: 0x8, addend: 0x0, symName: __ZNKSt3__119ostreambuf_iteratorIcNS_11char_traitsIcEEE6failedB8ue170006Ev, symObjAddr: 0x8F8C, symBinAddr: 0x10000CA70, symSize: 0x24 }
  - { offsetInCU: 0x131E0, offset: 0x18C40, size: 0x8, addend: 0x0, symName: __ZNKSt3__18ios_base5widthB8ue170006Ev, symObjAddr: 0x8FB0, symBinAddr: 0x10000CA94, symSize: 0x18 }
  - { offsetInCU: 0x13207, offset: 0x18C67, size: 0x8, addend: 0x0, symName: __ZNSt3__115basic_streambufIcNS_11char_traitsIcEEE5sputnB8ue170006EPKcl, symObjAddr: 0x8FC8, symBinAddr: 0x10000CAAC, symSize: 0x3C }
  - { offsetInCU: 0x13247, offset: 0x18CA7, size: 0x8, addend: 0x0, symName: __ZNSt3__18ios_base5widthB8ue170006El, symObjAddr: 0x9004, symBinAddr: 0x10000CAE8, symSize: 0x2C }
  - { offsetInCU: 0x1328C, offset: 0x18CEC, size: 0x8, addend: 0x0, symName: __ZNSt3__119ostreambuf_iteratorIcNS_11char_traitsIcEEEC2B8ue170006ERNS_13basic_ostreamIcS2_EE, symObjAddr: 0x9030, symBinAddr: 0x10000CB14, symSize: 0x68 }
  - { offsetInCU: 0x132C1, offset: 0x18D21, size: 0x8, addend: 0x0, symName: __ZNKSt3__19basic_iosIcNS_11char_traitsIcEEE5rdbufB8ue170006Ev, symObjAddr: 0x9098, symBinAddr: 0x10000CB7C, symSize: 0x24 }
  - { offsetInCU: 0x132E9, offset: 0x18D49, size: 0x8, addend: 0x0, symName: __ZNKSt3__18ios_base5rdbufB8ue170006Ev, symObjAddr: 0x90BC, symBinAddr: 0x10000CBA0, symSize: 0x18 }
  - { offsetInCU: 0x1330D, offset: 0x18D6D, size: 0x8, addend: 0x0, symName: __ZNSt3__111char_traitsIcE11eq_int_typeB8ue170006Eii, symObjAddr: 0x90D4, symBinAddr: 0x10000CBB8, symSize: 0x28 }
  - { offsetInCU: 0x1333E, offset: 0x18D9E, size: 0x8, addend: 0x0, symName: __ZNKSt3__19basic_iosIcNS_11char_traitsIcEEE5widenB8ue170006Ec, symObjAddr: 0x90FC, symBinAddr: 0x10000CBE0, symSize: 0x8C }
  - { offsetInCU: 0x133AC, offset: 0x18E0C, size: 0x8, addend: 0x0, symName: __ZNKSt3__15ctypeIcE5widenB8ue170006Ec, symObjAddr: 0x91B4, symBinAddr: 0x10000CC98, symSize: 0x38 }
  - { offsetInCU: 0x133DF, offset: 0x18E3F, size: 0x8, addend: 0x0, symName: __ZNSt3__16bitsetILm4EEC2B8ue170006IcNS_11char_traitsIcEENS_9allocatorIcEEEERKNS_12basic_stringIT_T0_T1_EENSB_9size_typeESE_S8_S8_, symObjAddr: 0x91EC, symBinAddr: 0x10000CCD0, symSize: 0xCC }
  - { offsetInCU: 0x1348A, offset: 0x18EEA, size: 0x8, addend: 0x0, symName: __ZNSt3__18__bitsetILm1ELm4EEC2Ev, symObjAddr: 0x92B8, symBinAddr: 0x10000CD9C, symSize: 0x18 }
  - { offsetInCU: 0x134B5, offset: 0x18F15, size: 0x8, addend: 0x0, symName: __ZNSt3__16bitsetILm4EE23__init_from_string_viewB8ue170006IcNS_11char_traitsIcEEEEvNS_17basic_string_viewIT_T0_EES6_S6_, symObjAddr: 0x92D0, symBinAddr: 0x10000CDB4, symSize: 0x1B8 }
  - { offsetInCU: 0x13572, offset: 0x18FD2, size: 0x8, addend: 0x0, symName: __ZNSt3__16bitsetILm4EEixB8ue170006Em, symObjAddr: 0x9488, symBinAddr: 0x10000CF6C, symSize: 0x3C }
  - { offsetInCU: 0x135A5, offset: 0x19005, size: 0x8, addend: 0x0, symName: __ZNSt3__115__bit_referenceINS_8__bitsetILm1ELm4EEELb1EEaSB8ue170006Eb, symObjAddr: 0x94C4, symBinAddr: 0x10000CFA8, symSize: 0x6C }
  - { offsetInCU: 0x135D7, offset: 0x19037, size: 0x8, addend: 0x0, symName: __ZNSt3__18__bitsetILm1ELm4EE11__make_iterB8ue170006Em, symObjAddr: 0x959C, symBinAddr: 0x10000D080, symSize: 0x60 }
  - { offsetInCU: 0x1360A, offset: 0x1906A, size: 0x8, addend: 0x0, symName: __ZNSt3__18__bitsetILm1ELm4EE10__make_refB8ue170006Em, symObjAddr: 0x95FC, symBinAddr: 0x10000D0E0, symSize: 0x40 }
  - { offsetInCU: 0x1363D, offset: 0x1909D, size: 0x8, addend: 0x0, symName: __ZNSt3__115__bit_referenceINS_8__bitsetILm1ELm4EEELb1EEC1B8ue170006EPmm, symObjAddr: 0x963C, symBinAddr: 0x10000D120, symSize: 0x3C }
  - { offsetInCU: 0x13681, offset: 0x190E1, size: 0x8, addend: 0x0, symName: __ZNSt3__115__bit_referenceINS_8__bitsetILm1ELm4EEELb1EEC2B8ue170006EPmm, symObjAddr: 0x9678, symBinAddr: 0x10000D15C, symSize: 0x2C }
  - { offsetInCU: 0x136C5, offset: 0x19125, size: 0x8, addend: 0x0, symName: __ZNSt3__114__bit_iteratorINS_8__bitsetILm1ELm4EEELb0ELm0EEC1B8ue170006ERKS3_, symObjAddr: 0x9738, symBinAddr: 0x10000D21C, symSize: 0x34 }
  - { offsetInCU: 0x136FC, offset: 0x1915C, size: 0x8, addend: 0x0, symName: __ZNSt3__114__bit_iteratorINS_8__bitsetILm1ELm4EEELb0ELm0EEC2B8ue170006ERKS3_, symObjAddr: 0x9A70, symBinAddr: 0x10000D554, symSize: 0x30 }
  - { offsetInCU: 0x13733, offset: 0x19193, size: 0x8, addend: 0x0, symName: __ZNSt3__114__bit_iteratorINS_8__bitsetILm1ELm4EEELb0ELm0EEC1B8ue170006EPmj, symObjAddr: 0x9AA0, symBinAddr: 0x10000D584, symSize: 0x3C }
  - { offsetInCU: 0x13779, offset: 0x191D9, size: 0x8, addend: 0x0, symName: __ZNSt3__114__bit_iteratorINS_8__bitsetILm1ELm4EEELb0ELm0EEC2B8ue170006EPmj, symObjAddr: 0x9ADC, symBinAddr: 0x10000D5C0, symSize: 0x2C }
  - { offsetInCU: 0x137BF, offset: 0x1921F, size: 0x8, addend: 0x0, symName: __ZNKSt3__18__bitsetILm1ELm4EE8to_ulongEv, symObjAddr: 0x9B08, symBinAddr: 0x10000D5EC, symSize: 0x18 }
  - { offsetInCU: 0x3F, offset: 0x19441, size: 0x8, addend: 0x0, symName: _IP, symObjAddr: 0x2964, symBinAddr: 0x100018980, symSize: 0x0 }
  - { offsetInCU: 0x6E, offset: 0x19470, size: 0x8, addend: 0x0, symName: _FP, symObjAddr: 0x2A64, symBinAddr: 0x100018A80, symSize: 0x0 }
  - { offsetInCU: 0x1F47, offset: 0x1B349, size: 0x8, addend: 0x0, symName: __ZNSt3__16copy_nB8ue170006IPKcmPcEENS_9enable_ifIXsr37__has_random_access_iterator_categoryIT_EE5valueET1_E4typeES5_T0_S6_, symObjAddr: 0x1E50, symBinAddr: 0x10000EA40, symSize: 0x44 }
  - { offsetInCU: 0x37D3, offset: 0x1CBD5, size: 0x8, addend: 0x0, symName: __ZNSt3__1plB8ue170006IcNS_11char_traitsIcEENS_9allocatorIcEEEENS_12basic_stringIT_T0_T1_EERKS9_SB_, symObjAddr: 0x838, symBinAddr: 0x10000DD0C, symSize: 0x134 }
  - { offsetInCU: 0x3875, offset: 0x1CC77, size: 0x8, addend: 0x0, symName: __ZNSt3__112__to_addressB8ue170006IcEEPT_S2_, symObjAddr: 0x1870, symBinAddr: 0x10000E5C8, symSize: 0x14 }
  - { offsetInCU: 0x3AB6, offset: 0x1CEB8, size: 0x8, addend: 0x0, symName: __ZNSt3__14copyB8ue170006IPKcPcEET0_T_S5_S4_, symObjAddr: 0x1E94, symBinAddr: 0x10000EA84, symSize: 0x40 }
  - { offsetInCU: 0x3B10, offset: 0x1CF12, size: 0x8, addend: 0x0, symName: __ZNSt3__16__copyB8ue170006INS_17_ClassicAlgPolicyEPKcS3_PcEENS_4pairIT0_T2_EES6_T1_S7_, symObjAddr: 0x1ED4, symBinAddr: 0x10000EAC4, symSize: 0x44 }
  - { offsetInCU: 0x3B7C, offset: 0x1CF7E, size: 0x8, addend: 0x0, symName: __ZNSt3__123__dispatch_copy_or_moveB8ue170006INS_17_ClassicAlgPolicyENS_11__copy_loopIS1_EENS_14__copy_trivialEPKcS6_PcEENS_4pairIT2_T4_EES9_T3_SA_, symObjAddr: 0x1F18, symBinAddr: 0x10000EB08, symSize: 0x44 }
  - { offsetInCU: 0x3BFA, offset: 0x1CFFC, size: 0x8, addend: 0x0, symName: __ZNSt3__121__unwrap_and_dispatchB8ue170006INS_10__overloadINS_11__copy_loopINS_17_ClassicAlgPolicyEEENS_14__copy_trivialEEEPKcS8_PcLi0EEENS_4pairIT0_T2_EESB_T1_SC_, symObjAddr: 0x1F5C, symBinAddr: 0x10000EB4C, symSize: 0xB4 }
  - { offsetInCU: 0x3C88, offset: 0x1D08A, size: 0x8, addend: 0x0, symName: __ZNSt3__114__unwrap_rangeB8ue170006IPKcS2_EENS_4pairIT0_S4_EET_S6_, symObjAddr: 0x2010, symBinAddr: 0x10000EC00, symSize: 0x60 }
  - { offsetInCU: 0x3DC7, offset: 0x1D1C9, size: 0x8, addend: 0x0, symName: __ZNSt3__113__unwrap_iterB8ue170006IPcNS_18__unwrap_iter_implIS1_Lb1EEELi0EEEDTclsrT0_8__unwrapclsr3stdE7declvalIT_EEEES5_, symObjAddr: 0x20B8, symBinAddr: 0x10000ECA8, symSize: 0x24 }
  - { offsetInCU: 0x3E0B, offset: 0x1D20D, size: 0x8, addend: 0x0, symName: __ZNSt3__19make_pairB8ue170006IPKcPcEENS_4pairINS_18__unwrap_ref_decayIT_E4typeENS5_IT0_E4typeEEEOS6_OS9_, symObjAddr: 0x20DC, symBinAddr: 0x10000ECCC, symSize: 0x38 }
  - { offsetInCU: 0x3E5B, offset: 0x1D25D, size: 0x8, addend: 0x0, symName: __ZNSt3__114__rewrap_rangeB8ue170006IPKcS2_EET_S3_T0_, symObjAddr: 0x2114, symBinAddr: 0x10000ED04, symSize: 0x2C }
  - { offsetInCU: 0x3EA7, offset: 0x1D2A9, size: 0x8, addend: 0x0, symName: __ZNSt3__113__rewrap_iterB8ue170006IPcS1_NS_18__unwrap_iter_implIS1_Lb1EEEEET_S4_T0_, symObjAddr: 0x2140, symBinAddr: 0x10000ED30, symSize: 0x50 }
  - { offsetInCU: 0x3EFC, offset: 0x1D2FE, size: 0x8, addend: 0x0, symName: __ZNSt3__19make_pairB8ue170006IPKcS2_EENS_4pairINS_18__unwrap_ref_decayIT_E4typeENS4_IT0_E4typeEEEOS5_OS8_, symObjAddr: 0x2190, symBinAddr: 0x10000ED80, symSize: 0x38 }
  - { offsetInCU: 0x3F4C, offset: 0x1D34E, size: 0x8, addend: 0x0, symName: __ZNSt3__113__unwrap_iterB8ue170006IPKcNS_18__unwrap_iter_implIS2_Lb1EEELi0EEEDTclsrT0_8__unwrapclsr3stdE7declvalIT_EEEES6_, symObjAddr: 0x21C8, symBinAddr: 0x10000EDB8, symSize: 0x24 }
  - { offsetInCU: 0x4090, offset: 0x1D492, size: 0x8, addend: 0x0, symName: __ZNSt3__119__copy_trivial_implB8ue170006IKccEENS_4pairIPT_PT0_EES4_S4_S6_, symObjAddr: 0x2294, symBinAddr: 0x10000EE70, symSize: 0x78 }
  - { offsetInCU: 0x40F8, offset: 0x1D4FA, size: 0x8, addend: 0x0, symName: __ZNSt3__119__constexpr_memmoveB8ue170006IcKcLi0EEEPT_S3_PT0_NS_15__element_countE, symObjAddr: 0x230C, symBinAddr: 0x10000EEE8, symSize: 0xA0 }
  - { offsetInCU: 0x4166, offset: 0x1D568, size: 0x8, addend: 0x0, symName: __ZNSt3__19make_pairB8ue170006IRPKcPcEENS_4pairINS_18__unwrap_ref_decayIT_E4typeENS6_IT0_E4typeEEEOS7_OSA_, symObjAddr: 0x23AC, symBinAddr: 0x10000EF88, symSize: 0x38 }
  - { offsetInCU: 0x4209, offset: 0x1D60B, size: 0x8, addend: 0x0, symName: __ZNSt3__113__rewrap_iterB8ue170006IPKcS2_NS_18__unwrap_iter_implIS2_Lb1EEEEET_S5_T0_, symObjAddr: 0x2478, symBinAddr: 0x10000F054, symSize: 0x50 }
  - { offsetInCU: 0x425E, offset: 0x1D660, size: 0x8, addend: 0x0, symName: __ZNSt3__16fill_nB8ue170006IPcmcEET_S2_T0_RKT1_, symObjAddr: 0x2610, symBinAddr: 0x10000F134, symSize: 0x44 }
  - { offsetInCU: 0x42C1, offset: 0x1D6C3, size: 0x8, addend: 0x0, symName: __ZNSt3__18__fill_nB8ue170006IPcmcEET_S2_T0_RKT1_, symObjAddr: 0x2654, symBinAddr: 0x10000F178, symSize: 0x64 }
  - { offsetInCU: 0x6259, offset: 0x1F65B, size: 0x8, addend: 0x0, symName: __Z10encryptionNSt3__112basic_stringIcNS_11char_traitsIcEENS_9allocatorIcEEEENS_6vectorIS5_NS3_IS5_EEEE, symObjAddr: 0x0, symBinAddr: 0x10000D604, symSize: 0x708 }
  - { offsetInCU: 0x63B7, offset: 0x1F7B9, size: 0x8, addend: 0x0, symName: __Z10decryptionNSt3__112basic_stringIcNS_11char_traitsIcEENS_9allocatorIcEEEENS_6vectorIS5_NS3_IS5_EEEE, symObjAddr: 0x96C, symBinAddr: 0x10000DE40, symSize: 0x718 }
  - { offsetInCU: 0x6498, offset: 0x1F89A, size: 0x8, addend: 0x0, symName: __ZNSt3__116allocator_traitsINS_9allocatorIcEEE37select_on_container_copy_constructionB8ue170006IS2_vvEES2_RKS2_, symObjAddr: 0x1800, symBinAddr: 0x10000E558, symSize: 0x10 }
  - { offsetInCU: 0x64C6, offset: 0x1F8C8, size: 0x8, addend: 0x0, symName: __ZNKSt3__112basic_stringIcNS_11char_traitsIcEENS_9allocatorIcEEE13get_allocatorB8ue170006Ev, symObjAddr: 0x1810, symBinAddr: 0x10000E568, symSize: 0x24 }
  - { offsetInCU: 0x64EA, offset: 0x1F8EC, size: 0x8, addend: 0x0, symName: __ZNSt3__112basic_stringIcNS_11char_traitsIcEENS_9allocatorIcEEEC1B8ue170006ENS_24__uninitialized_size_tagEmRKS4_, symObjAddr: 0x1834, symBinAddr: 0x10000E58C, symSize: 0x3C }
  - { offsetInCU: 0x653C, offset: 0x1F93E, size: 0x8, addend: 0x0, symName: __ZNSt3__111char_traitsIcE4copyB8ue170006EPcPKcm, symObjAddr: 0x1884, symBinAddr: 0x10000E5DC, symSize: 0x64 }
  - { offsetInCU: 0x657A, offset: 0x1F97C, size: 0x8, addend: 0x0, symName: __ZNSt3__111char_traitsIcE6assignB8ue170006EPcmc, symObjAddr: 0x1910, symBinAddr: 0x10000E640, symSize: 0x58 }
  - { offsetInCU: 0x65B8, offset: 0x1F9BA, size: 0x8, addend: 0x0, symName: __ZNKSt3__112basic_stringIcNS_11char_traitsIcEENS_9allocatorIcEEE7__allocB8ue170006Ev, symObjAddr: 0x19C4, symBinAddr: 0x10000E698, symSize: 0x24 }
  - { offsetInCU: 0x65DC, offset: 0x1F9DE, size: 0x8, addend: 0x0, symName: __ZNKSt3__117__compressed_pairINS_12basic_stringIcNS_11char_traitsIcEENS_9allocatorIcEEE5__repES5_E6secondB8ue170006Ev, symObjAddr: 0x19E8, symBinAddr: 0x10000E6BC, symSize: 0x24 }
  - { offsetInCU: 0x6600, offset: 0x1FA02, size: 0x8, addend: 0x0, symName: __ZNKSt3__122__compressed_pair_elemINS_9allocatorIcEELi1ELb1EE5__getB8ue170006Ev, symObjAddr: 0x1A0C, symBinAddr: 0x10000E6E0, symSize: 0x14 }
  - { offsetInCU: 0x6624, offset: 0x1FA26, size: 0x8, addend: 0x0, symName: __ZNSt3__112basic_stringIcNS_11char_traitsIcEENS_9allocatorIcEEEC2B8ue170006ENS_24__uninitialized_size_tagEmRKS4_, symObjAddr: 0x1A20, symBinAddr: 0x10000E6F4, symSize: 0x110 }
  - { offsetInCU: 0x66A2, offset: 0x1FAA4, size: 0x8, addend: 0x0, symName: __ZNSt3__117__compressed_pairINS_12basic_stringIcNS_11char_traitsIcEENS_9allocatorIcEEE5__repES5_EC1B8ue170006INS_18__default_init_tagERKS5_EEOT_OT0_, symObjAddr: 0x1B30, symBinAddr: 0x10000E804, symSize: 0x3C }
  - { offsetInCU: 0x66F8, offset: 0x1FAFA, size: 0x8, addend: 0x0, symName: __ZNKSt3__112basic_stringIcNS_11char_traitsIcEENS_9allocatorIcEEE8max_sizeB8ue170006Ev, symObjAddr: 0x1B6C, symBinAddr: 0x10000E840, symSize: 0xAC }
  - { offsetInCU: 0x6748, offset: 0x1FB4A, size: 0x8, addend: 0x0, symName: __ZNKSt3__112basic_stringIcNS_11char_traitsIcEENS_9allocatorIcEEE20__throw_length_errorB8ue170006Ev, symObjAddr: 0x1C18, symBinAddr: 0x10000E8EC, symSize: 0x1C }
  - { offsetInCU: 0x676C, offset: 0x1FB6E, size: 0x8, addend: 0x0, symName: __ZNSt3__112basic_stringIcNS_11char_traitsIcEENS_9allocatorIcEEE13__fits_in_ssoB8ue170006Em, symObjAddr: 0x1C34, symBinAddr: 0x10000E908, symSize: 0x4C }
  - { offsetInCU: 0x678F, offset: 0x1FB91, size: 0x8, addend: 0x0, symName: __ZNSt3__112basic_stringIcNS_11char_traitsIcEENS_9allocatorIcEEE16__set_short_sizeB8ue170006Em, symObjAddr: 0x1C80, symBinAddr: 0x10000E954, symSize: 0x78 }
  - { offsetInCU: 0x67C2, offset: 0x1FBC4, size: 0x8, addend: 0x0, symName: __ZNSt3__117__compressed_pairINS_12basic_stringIcNS_11char_traitsIcEENS_9allocatorIcEEE5__repES5_EC2B8ue170006INS_18__default_init_tagERKS5_EEOT_OT0_, symObjAddr: 0x1CF8, symBinAddr: 0x10000E9CC, symSize: 0x40 }
  - { offsetInCU: 0x6818, offset: 0x1FC1A, size: 0x8, addend: 0x0, symName: __ZNSt3__122__compressed_pair_elemINS_9allocatorIcEELi1ELb1EEC2B8ue170006IRKS2_vEEOT_, symObjAddr: 0x1D38, symBinAddr: 0x10000EA0C, symSize: 0x18 }
  - { offsetInCU: 0x6858, offset: 0x1FC5A, size: 0x8, addend: 0x0, symName: __ZNSt3__114numeric_limitsImE3maxB8ue170006Ev, symObjAddr: 0x1D50, symBinAddr: 0x10000EA24, symSize: 0x14 }
  - { offsetInCU: 0x686C, offset: 0x1FC6E, size: 0x8, addend: 0x0, symName: __ZNSt3__123__libcpp_numeric_limitsImLb1EE3maxB8ue170006Ev, symObjAddr: 0x1D64, symBinAddr: 0x10000EA38, symSize: 0x8 }
  - { offsetInCU: 0x68B7, offset: 0x1FCB9, size: 0x8, addend: 0x0, symName: __ZNKSt3__114__copy_trivialclB8ue170006IKccLi0EEENS_4pairIPT_PT0_EES5_S5_S7_, symObjAddr: 0x2070, symBinAddr: 0x10000EC60, symSize: 0x48 }
  - { offsetInCU: 0x6936, offset: 0x1FD38, size: 0x8, addend: 0x0, symName: __ZNSt3__14pairIPKcS2_EC1B8ue170006ERKS2_S5_, symObjAddr: 0x21EC, symBinAddr: 0x10000EDDC, symSize: 0x3C }
  - { offsetInCU: 0x697A, offset: 0x1FD7C, size: 0x8, addend: 0x0, symName: __ZNSt3__14pairIPKcS2_EC2B8ue170006ERKS2_S5_, symObjAddr: 0x2228, symBinAddr: 0x10000EE18, symSize: 0x34 }
  - { offsetInCU: 0x69BE, offset: 0x1FDC0, size: 0x8, addend: 0x0, symName: __ZNSt3__118__unwrap_iter_implIPKcLb1EE8__unwrapB8ue170006ES2_, symObjAddr: 0x225C, symBinAddr: 0x10000EE4C, symSize: 0x24 }
  - { offsetInCU: 0x69E0, offset: 0x1FDE2, size: 0x8, addend: 0x0, symName: __ZNSt3__14pairIPKcPcEC1B8ue170006ERKS2_RKS3_, symObjAddr: 0x23E4, symBinAddr: 0x10000EFC0, symSize: 0x3C }
  - { offsetInCU: 0x6A24, offset: 0x1FE26, size: 0x8, addend: 0x0, symName: __ZNSt3__14pairIPKcPcEC2B8ue170006ERKS2_RKS3_, symObjAddr: 0x2420, symBinAddr: 0x10000EFFC, symSize: 0x34 }
  - { offsetInCU: 0x6A68, offset: 0x1FE6A, size: 0x8, addend: 0x0, symName: __ZNSt3__118__unwrap_iter_implIPcLb1EE8__unwrapB8ue170006ES1_, symObjAddr: 0x2454, symBinAddr: 0x10000F030, symSize: 0x24 }
  - { offsetInCU: 0x6A8A, offset: 0x1FE8C, size: 0x8, addend: 0x0, symName: __ZNSt3__118__unwrap_iter_implIPKcLb1EE8__rewrapB8ue170006ES2_S2_, symObjAddr: 0x24C8, symBinAddr: 0x10000F0A4, symSize: 0x48 }
  - { offsetInCU: 0x6ABA, offset: 0x1FEBC, size: 0x8, addend: 0x0, symName: __ZNSt3__118__unwrap_iter_implIPcLb1EE8__rewrapB8ue170006ES1_S1_, symObjAddr: 0x2510, symBinAddr: 0x10000F0EC, symSize: 0x48 }
  - { offsetInCU: 0x3467, offset: 0x2337B, size: 0x8, addend: 0x0, symName: __ZNSt3__122__make_exception_guardB8ue170006INS_6vectorINS_12basic_stringIcNS_11char_traitsIcEENS_9allocatorIcEEEENS5_IS7_EEE16__destroy_vectorEEENS_28__exception_guard_exceptionsIT_EESC_, symObjAddr: 0x1138, symBinAddr: 0x10000FC5C, symSize: 0x40 }
  - { offsetInCU: 0x53DC, offset: 0x252F0, size: 0x8, addend: 0x0, symName: __Z14CBC_encryptionNSt3__16vectorINS_12basic_stringIcNS_11char_traitsIcEENS_9allocatorIcEEEENS4_IS6_EEEES6_S6_, symObjAddr: 0x0, symBinAddr: 0x10000F1DC, symSize: 0x4B8 }
  - { offsetInCU: 0x545A, offset: 0x2536E, size: 0x8, addend: 0x0, symName: __ZNSt3__16vectorINS_12basic_stringIcNS_11char_traitsIcEENS_9allocatorIcEEEENS4_IS6_EEEC1Em, symObjAddr: 0x50C, symBinAddr: 0x10000F694, symSize: 0x34 }
  - { offsetInCU: 0x5494, offset: 0x253A8, size: 0x8, addend: 0x0, symName: __Z14CBC_decryptionNSt3__16vectorINS_12basic_stringIcNS_11char_traitsIcEENS_9allocatorIcEEEENS4_IS6_EEEES6_S6_, symObjAddr: 0x5D0, symBinAddr: 0x10000F6C8, symSize: 0x4B8 }
  - { offsetInCU: 0x5512, offset: 0x25426, size: 0x8, addend: 0x0, symName: __ZNSt3__16vectorINS_12basic_stringIcNS_11char_traitsIcEENS_9allocatorIcEEEENS4_IS6_EEEC2Em, symObjAddr: 0x1020, symBinAddr: 0x10000FB80, symSize: 0xDC }
  - { offsetInCU: 0x5561, offset: 0x25475, size: 0x8, addend: 0x0, symName: __ZNSt3__16vectorINS_12basic_stringIcNS_11char_traitsIcEENS_9allocatorIcEEEENS4_IS6_EEE11__vallocateB8ue170006Em, symObjAddr: 0x11AC, symBinAddr: 0x10000FC9C, symSize: 0xB4 }
  - { offsetInCU: 0x55A3, offset: 0x254B7, size: 0x8, addend: 0x0, symName: __ZNSt3__16vectorINS_12basic_stringIcNS_11char_traitsIcEENS_9allocatorIcEEEENS4_IS6_EEE18__construct_at_endEm, symObjAddr: 0x1260, symBinAddr: 0x10000FD50, symSize: 0xD0 }
  - { offsetInCU: 0x5614, offset: 0x25528, size: 0x8, addend: 0x0, symName: __ZNSt3__128__exception_guard_exceptionsINS_6vectorINS_12basic_stringIcNS_11char_traitsIcEENS_9allocatorIcEEEENS5_IS7_EEE16__destroy_vectorEE10__completeB8ue170006Ev, symObjAddr: 0x1330, symBinAddr: 0x10000FE20, symSize: 0x1C }
  - { offsetInCU: 0x5638, offset: 0x2554C, size: 0x8, addend: 0x0, symName: __ZNSt3__128__exception_guard_exceptionsINS_6vectorINS_12basic_stringIcNS_11char_traitsIcEENS_9allocatorIcEEEENS5_IS7_EEE16__destroy_vectorEED1B8ue170006Ev, symObjAddr: 0x134C, symBinAddr: 0x10000FE3C, symSize: 0x2C }
  - { offsetInCU: 0x5660, offset: 0x25574, size: 0x8, addend: 0x0, symName: __ZNSt3__128__exception_guard_exceptionsINS_6vectorINS_12basic_stringIcNS_11char_traitsIcEENS_9allocatorIcEEEENS5_IS7_EEE16__destroy_vectorEEC1B8ue170006ESA_, symObjAddr: 0x1440, symBinAddr: 0x10000FE68, symSize: 0x34 }
  - { offsetInCU: 0x5696, offset: 0x255AA, size: 0x8, addend: 0x0, symName: __ZNSt3__128__exception_guard_exceptionsINS_6vectorINS_12basic_stringIcNS_11char_traitsIcEENS_9allocatorIcEEEENS5_IS7_EEE16__destroy_vectorEEC2B8ue170006ESA_, symObjAddr: 0x1474, symBinAddr: 0x10000FE9C, symSize: 0x24 }
  - { offsetInCU: 0x56EF, offset: 0x25603, size: 0x8, addend: 0x0, symName: __ZNSt3__116allocator_traitsINS_9allocatorINS_12basic_stringIcNS_11char_traitsIcEENS1_IcEEEEEEE9constructB8ue170006IS6_JEvEEvRS7_PT_DpOT0_, symObjAddr: 0x1B24, symBinAddr: 0x10000FEC0, symSize: 0x2C }
  - { offsetInCU: 0x5731, offset: 0x25645, size: 0x8, addend: 0x0, symName: __ZNSt3__19allocatorINS_12basic_stringIcNS_11char_traitsIcEENS0_IcEEEEE9constructB8ue170006IS5_JEEEvPT_DpOT0_, symObjAddr: 0x1BC8, symBinAddr: 0x10000FEEC, symSize: 0x28 }
  - { offsetInCU: 0x5772, offset: 0x25686, size: 0x8, addend: 0x0, symName: __ZNSt3__128__exception_guard_exceptionsINS_6vectorINS_12basic_stringIcNS_11char_traitsIcEENS_9allocatorIcEEEENS5_IS7_EEE16__destroy_vectorEED2B8ue170006Ev, symObjAddr: 0x1C10, symBinAddr: 0x10000FF14, symSize: 0x48 }
  - { offsetInCU: 0x4FCB, offset: 0x2A688, size: 0x8, addend: 0x0, symName: __ZNSt3__1rsB8ue170006IcNS_11char_traitsIcEENS_9allocatorIcEEEERNS_13basic_istreamIT_T0_EES9_RNS_12basic_stringIS6_S7_T1_EE, symObjAddr: 0xA48, symBinAddr: 0x100010930, symSize: 0x314 }
  - { offsetInCU: 0x5099, offset: 0x2A756, size: 0x8, addend: 0x0, symName: __ZNSt3__14endlB8ue170006IcNS_11char_traitsIcEEEERNS_13basic_ostreamIT_T0_EES7_, symObjAddr: 0xE58, symBinAddr: 0x100010CA4, symSize: 0x58 }
  - { offsetInCU: 0x5667, offset: 0x2AD24, size: 0x8, addend: 0x0, symName: __ZNSt3__130__uninitialized_allocator_copyB8ue170006INS_9allocatorINS_12basic_stringIcNS_11char_traitsIcEENS1_IcEEEEEEPS6_S8_S8_EET2_RT_T0_T1_S9_, symObjAddr: 0x33B8, symBinAddr: 0x100011298, symSize: 0x80 }
  - { offsetInCU: 0x5705, offset: 0x2ADC2, size: 0x8, addend: 0x0, symName: __ZNSt3__114__unwrap_rangeB8ue170006IPNS_12basic_stringIcNS_11char_traitsIcEENS_9allocatorIcEEEES7_EENS_4pairIT0_S9_EET_SB_, symObjAddr: 0x34B0, symBinAddr: 0x100011318, symSize: 0x60 }
  - { offsetInCU: 0x5751, offset: 0x2AE0E, size: 0x8, addend: 0x0, symName: __ZNSt3__135__uninitialized_allocator_copy_implB8ue170006INS_9allocatorINS_12basic_stringIcNS_11char_traitsIcEENS1_IcEEEEEEPS6_S8_S8_EET2_RT_T0_T1_S9_, symObjAddr: 0x3510, symBinAddr: 0x100011378, symSize: 0xFC }
  - { offsetInCU: 0x57F0, offset: 0x2AEAD, size: 0x8, addend: 0x0, symName: __ZNSt3__113__unwrap_iterB8ue170006IPNS_12basic_stringIcNS_11char_traitsIcEENS_9allocatorIcEEEENS_18__unwrap_iter_implIS7_Lb1EEELi0EEEDTclsrT0_8__unwrapclsr3stdE7declvalIT_EEEESB_, symObjAddr: 0x360C, symBinAddr: 0x100011474, symSize: 0x24 }
  - { offsetInCU: 0x5834, offset: 0x2AEF1, size: 0x8, addend: 0x0, symName: __ZNSt3__113__rewrap_iterB8ue170006IPNS_12basic_stringIcNS_11char_traitsIcEENS_9allocatorIcEEEES7_NS_18__unwrap_iter_implIS7_Lb1EEEEET_SA_T0_, symObjAddr: 0x3630, symBinAddr: 0x100011498, symSize: 0x50 }
  - { offsetInCU: 0x5889, offset: 0x2AF46, size: 0x8, addend: 0x0, symName: __ZNSt3__19make_pairB8ue170006IPNS_12basic_stringIcNS_11char_traitsIcEENS_9allocatorIcEEEES7_EENS_4pairINS_18__unwrap_ref_decayIT_E4typeENS9_IT0_E4typeEEEOSA_OSD_, symObjAddr: 0x3680, symBinAddr: 0x1000114E8, symSize: 0x38 }
  - { offsetInCU: 0x5986, offset: 0x2B043, size: 0x8, addend: 0x0, symName: __ZNSt3__122__make_exception_guardB8ue170006INS_29_AllocatorDestroyRangeReverseINS_9allocatorINS_12basic_stringIcNS_11char_traitsIcEENS2_IcEEEEEEPS7_EEEENS_28__exception_guard_exceptionsIT_EESC_, symObjAddr: 0x3728, symBinAddr: 0x100011590, symSize: 0x4C }
  - { offsetInCU: 0x59BC, offset: 0x2B079, size: 0x8, addend: 0x0, symName: __ZNSt3__119__allocator_destroyB8ue170006INS_9allocatorINS_12basic_stringIcNS_11char_traitsIcEENS1_IcEEEEEENS_16reverse_iteratorIPS6_EESA_EEvRT_T0_T1_, symObjAddr: 0x39B0, symBinAddr: 0x100011818, symSize: 0x70 }
  - { offsetInCU: 0x7B97, offset: 0x2D254, size: 0x8, addend: 0x0, symName: _main, symObjAddr: 0x0, symBinAddr: 0x10000FF5C, symSize: 0x9D4 }
  - { offsetInCU: 0x7CCF, offset: 0x2D38C, size: 0x8, addend: 0x0, symName: __ZNSt3__16vectorINS_12basic_stringIcNS_11char_traitsIcEENS_9allocatorIcEEEENS4_IS6_EEEC1ERKS8_, symObjAddr: 0xDCC, symBinAddr: 0x100010C44, symSize: 0x34 }
  - { offsetInCU: 0x7D09, offset: 0x2D3C6, size: 0x8, addend: 0x0, symName: __ZNSt3__113basic_ostreamIcNS_11char_traitsIcEEElsB8ue170006EPFRS3_S4_E, symObjAddr: 0xE2C, symBinAddr: 0x100010C78, symSize: 0x2C }
  - { offsetInCU: 0x7DF0, offset: 0x2D4AD, size: 0x8, addend: 0x0, symName: __ZNKSt3__113basic_istreamIcNS_11char_traitsIcEEE6sentrycvbB8ue170006Ev, symObjAddr: 0x1EF8, symBinAddr: 0x100010CFC, symSize: 0x1C }
  - { offsetInCU: 0x7E14, offset: 0x2D4D1, size: 0x8, addend: 0x0, symName: __ZNSt3__112basic_stringIcNS_11char_traitsIcEENS_9allocatorIcEEE5clearB8ue170006Ev, symObjAddr: 0x1F14, symBinAddr: 0x100010D18, symSize: 0x78 }
  - { offsetInCU: 0x7E3B, offset: 0x2D4F8, size: 0x8, addend: 0x0, symName: __ZNSt3__115basic_streambufIcNS_11char_traitsIcEEE5sgetcB8ue170006Ev, symObjAddr: 0x204C, symBinAddr: 0x100010D90, symSize: 0x70 }
  - { offsetInCU: 0x7E5F, offset: 0x2D51C, size: 0x8, addend: 0x0, symName: __ZNSt3__111char_traitsIcE12to_char_typeB8ue170006Ei, symObjAddr: 0x20BC, symBinAddr: 0x100010E00, symSize: 0x18 }
  - { offsetInCU: 0x7E81, offset: 0x2D53E, size: 0x8, addend: 0x0, symName: __ZNKSt3__15ctypeIcE2isB8ue170006Ejc, symObjAddr: 0x20D4, symBinAddr: 0x100010E18, symSize: 0x7C }
  - { offsetInCU: 0x7EC3, offset: 0x2D580, size: 0x8, addend: 0x0, symName: __ZNSt3__115basic_streambufIcNS_11char_traitsIcEEE6sbumpcB8ue170006Ev, symObjAddr: 0x2150, symBinAddr: 0x100010E94, symSize: 0x78 }
  - { offsetInCU: 0x7EE7, offset: 0x2D5A4, size: 0x8, addend: 0x0, symName: __ZNSt3__18ios_base18__setstate_nothrowB8ue170006Ej, symObjAddr: 0x21C8, symBinAddr: 0x100010F0C, symSize: 0x64 }
  - { offsetInCU: 0x7F1A, offset: 0x2D5D7, size: 0x8, addend: 0x0, symName: __ZNKSt3__19basic_iosIcNS_11char_traitsIcEEE10exceptionsB8ue170006Ev, symObjAddr: 0x222C, symBinAddr: 0x100010F70, symSize: 0x24 }
  - { offsetInCU: 0x7F3E, offset: 0x2D5FB, size: 0x8, addend: 0x0, symName: __ZNSt3__111char_traitsIcE6assignB8ue170006ERcRKc, symObjAddr: 0x2250, symBinAddr: 0x100010F94, symSize: 0x24 }
  - { offsetInCU: 0x7F6E, offset: 0x2D62B, size: 0x8, addend: 0x0, symName: __ZNSt3__111char_traitsIcE11to_int_typeB8ue170006Ec, symObjAddr: 0x23D0, symBinAddr: 0x100010FB8, symSize: 0x14 }
  - { offsetInCU: 0x7F90, offset: 0x2D64D, size: 0x8, addend: 0x0, symName: __Z7isasciii, symObjAddr: 0x23E4, symBinAddr: 0x100010FCC, symSize: 0x24 }
  - { offsetInCU: 0x7FBD, offset: 0x2D67A, size: 0x8, addend: 0x0, symName: __ZNKSt3__18ios_base10exceptionsB8ue170006Ev, symObjAddr: 0x2408, symBinAddr: 0x100010FF0, symSize: 0x18 }
  - { offsetInCU: 0x7FE4, offset: 0x2D6A1, size: 0x8, addend: 0x0, symName: __ZNSt3__16vectorINS_12basic_stringIcNS_11char_traitsIcEENS_9allocatorIcEEEENS4_IS6_EEEC2ERKS8_, symObjAddr: 0x2A84, symBinAddr: 0x100011008, symSize: 0x94 }
  - { offsetInCU: 0x8028, offset: 0x2D6E5, size: 0x8, addend: 0x0, symName: __ZNSt3__116allocator_traitsINS_9allocatorINS_12basic_stringIcNS_11char_traitsIcEENS1_IcEEEEEEE37select_on_container_copy_constructionB8ue170006IS7_vvEES7_RKS7_, symObjAddr: 0x2B18, symBinAddr: 0x10001109C, symSize: 0x10 }
  - { offsetInCU: 0x8060, offset: 0x2D71D, size: 0x8, addend: 0x0, symName: __ZNSt3__117__compressed_pairIPNS_12basic_stringIcNS_11char_traitsIcEENS_9allocatorIcEEEENS4_IS6_EEEC1B8ue170006IDnS8_EEOT_OT0_, symObjAddr: 0x2B50, symBinAddr: 0x1000110AC, symSize: 0x3C }
  - { offsetInCU: 0x80B6, offset: 0x2D773, size: 0x8, addend: 0x0, symName: __ZNSt3__16vectorINS_12basic_stringIcNS_11char_traitsIcEENS_9allocatorIcEEEENS4_IS6_EEE16__init_with_sizeB8ue170006IPS6_SA_EEvT_T0_m, symObjAddr: 0x2B8C, symBinAddr: 0x1000110E8, symSize: 0xC0 }
  - { offsetInCU: 0x8128, offset: 0x2D7E5, size: 0x8, addend: 0x0, symName: __ZNSt3__117__compressed_pairIPNS_12basic_stringIcNS_11char_traitsIcEENS_9allocatorIcEEEENS4_IS6_EEEC2B8ue170006IDnS8_EEOT_OT0_, symObjAddr: 0x2C84, symBinAddr: 0x1000111A8, symSize: 0x44 }
  - { offsetInCU: 0x817E, offset: 0x2D83B, size: 0x8, addend: 0x0, symName: __ZNSt3__122__compressed_pair_elemINS_9allocatorINS_12basic_stringIcNS_11char_traitsIcEENS1_IcEEEEEELi1ELb1EEC2B8ue170006IS7_vEEOT_, symObjAddr: 0x2CE4, symBinAddr: 0x1000111EC, symSize: 0x18 }
  - { offsetInCU: 0x81BE, offset: 0x2D87B, size: 0x8, addend: 0x0, symName: __ZNSt3__16vectorINS_12basic_stringIcNS_11char_traitsIcEENS_9allocatorIcEEEENS4_IS6_EEE18__construct_at_endIPS6_SA_EEvT_T0_m, symObjAddr: 0x2DF0, symBinAddr: 0x100011204, symSize: 0x94 }
  - { offsetInCU: 0x8265, offset: 0x2D922, size: 0x8, addend: 0x0, symName: __ZNSt3__14pairIPNS_12basic_stringIcNS_11char_traitsIcEENS_9allocatorIcEEEES7_EC1B8ue170006ERKS7_SA_, symObjAddr: 0x36B8, symBinAddr: 0x100011520, symSize: 0x3C }
  - { offsetInCU: 0x82A9, offset: 0x2D966, size: 0x8, addend: 0x0, symName: __ZNSt3__14pairIPNS_12basic_stringIcNS_11char_traitsIcEENS_9allocatorIcEEEES7_EC2B8ue170006ERKS7_SA_, symObjAddr: 0x36F4, symBinAddr: 0x10001155C, symSize: 0x34 }
  - { offsetInCU: 0x82ED, offset: 0x2D9AA, size: 0x8, addend: 0x0, symName: __ZNSt3__129_AllocatorDestroyRangeReverseINS_9allocatorINS_12basic_stringIcNS_11char_traitsIcEENS1_IcEEEEEEPS6_EC1B8ue170006ERS7_RS8_SB_, symObjAddr: 0x3774, symBinAddr: 0x1000115DC, symSize: 0x44 }
  - { offsetInCU: 0x8342, offset: 0x2D9FF, size: 0x8, addend: 0x0, symName: __ZNSt3__116allocator_traitsINS_9allocatorINS_12basic_stringIcNS_11char_traitsIcEENS1_IcEEEEEEE9constructB8ue170006IS6_JRS6_EvEEvRS7_PT_DpOT0_, symObjAddr: 0x37B8, symBinAddr: 0x100011620, symSize: 0x34 }
  - { offsetInCU: 0x8398, offset: 0x2DA55, size: 0x8, addend: 0x0, symName: __ZNSt3__128__exception_guard_exceptionsINS_29_AllocatorDestroyRangeReverseINS_9allocatorINS_12basic_stringIcNS_11char_traitsIcEENS2_IcEEEEEEPS7_EEE10__completeB8ue170006Ev, symObjAddr: 0x37EC, symBinAddr: 0x100011654, symSize: 0x1C }
  - { offsetInCU: 0x83BC, offset: 0x2DA79, size: 0x8, addend: 0x0, symName: __ZNSt3__128__exception_guard_exceptionsINS_29_AllocatorDestroyRangeReverseINS_9allocatorINS_12basic_stringIcNS_11char_traitsIcEENS2_IcEEEEEEPS7_EEED1B8ue170006Ev, symObjAddr: 0x3808, symBinAddr: 0x100011670, symSize: 0x2C }
  - { offsetInCU: 0x83E4, offset: 0x2DAA1, size: 0x8, addend: 0x0, symName: __ZNSt3__128__exception_guard_exceptionsINS_29_AllocatorDestroyRangeReverseINS_9allocatorINS_12basic_stringIcNS_11char_traitsIcEENS2_IcEEEEEEPS7_EEEC1B8ue170006ESA_, symObjAddr: 0x3834, symBinAddr: 0x10001169C, symSize: 0x34 }
  - { offsetInCU: 0x841B, offset: 0x2DAD8, size: 0x8, addend: 0x0, symName: __ZNSt3__128__exception_guard_exceptionsINS_29_AllocatorDestroyRangeReverseINS_9allocatorINS_12basic_stringIcNS_11char_traitsIcEENS2_IcEEEEEEPS7_EEEC2B8ue170006ESA_, symObjAddr: 0x3868, symBinAddr: 0x1000116D0, symSize: 0x30 }
  - { offsetInCU: 0x8452, offset: 0x2DB0F, size: 0x8, addend: 0x0, symName: __ZNSt3__129_AllocatorDestroyRangeReverseINS_9allocatorINS_12basic_stringIcNS_11char_traitsIcEENS1_IcEEEEEEPS6_EC2B8ue170006ERS7_RS8_SB_, symObjAddr: 0x3898, symBinAddr: 0x100011700, symSize: 0x38 }
  - { offsetInCU: 0x84A7, offset: 0x2DB64, size: 0x8, addend: 0x0, symName: __ZNSt3__19allocatorINS_12basic_stringIcNS_11char_traitsIcEENS0_IcEEEEE9constructB8ue170006IS5_JRS5_EEEvPT_DpOT0_, symObjAddr: 0x38D0, symBinAddr: 0x100011738, symSize: 0x30 }
  - { offsetInCU: 0x84FB, offset: 0x2DBB8, size: 0x8, addend: 0x0, symName: __ZNSt3__128__exception_guard_exceptionsINS_29_AllocatorDestroyRangeReverseINS_9allocatorINS_12basic_stringIcNS_11char_traitsIcEENS2_IcEEEEEEPS7_EEED2B8ue170006Ev, symObjAddr: 0x3900, symBinAddr: 0x100011768, symSize: 0x48 }
  - { offsetInCU: 0x8523, offset: 0x2DBE0, size: 0x8, addend: 0x0, symName: __ZNKSt3__129_AllocatorDestroyRangeReverseINS_9allocatorINS_12basic_stringIcNS_11char_traitsIcEENS1_IcEEEEEEPS6_EclB8ue170006Ev, symObjAddr: 0x3948, symBinAddr: 0x1000117B0, symSize: 0x68 }
  - { offsetInCU: 0x8547, offset: 0x2DC04, size: 0x8, addend: 0x0, symName: __ZNSt3__118__unwrap_iter_implIPNS_12basic_stringIcNS_11char_traitsIcEENS_9allocatorIcEEEELb1EE8__unwrapB8ue170006ES7_, symObjAddr: 0x3BB8, symBinAddr: 0x100011888, symSize: 0x24 }
  - { offsetInCU: 0x8569, offset: 0x2DC26, size: 0x8, addend: 0x0, symName: __ZNSt3__118__unwrap_iter_implIPNS_12basic_stringIcNS_11char_traitsIcEENS_9allocatorIcEEEELb1EE8__rewrapB8ue170006ES7_S7_, symObjAddr: 0x3BDC, symBinAddr: 0x1000118AC, symSize: 0x58 }
  - { offsetInCU: 0x3F, offset: 0x2DCDA, size: 0x8, addend: 0x0, symName: _PC1, symObjAddr: 0x3F9C, symBinAddr: 0x100018B80, symSize: 0x0 }
  - { offsetInCU: 0x6E, offset: 0x2DD09, size: 0x8, addend: 0x0, symName: _PC2, symObjAddr: 0x407C, symBinAddr: 0x100018C60, symSize: 0x0 }
  - { offsetInCU: 0x5862, offset: 0x334FD, size: 0x8, addend: 0x0, symName: __Z10shift_leftNSt3__112basic_stringIcNS_11char_traitsIcEENS_9allocatorIcEEEE, symObjAddr: 0x0, symBinAddr: 0x100011904, symSize: 0xD0 }
  - { offsetInCU: 0x58B9, offset: 0x33554, size: 0x8, addend: 0x0, symName: __Z7key_genNSt3__112basic_stringIcNS_11char_traitsIcEENS_9allocatorIcEEEE, symObjAddr: 0x100, symBinAddr: 0x1000119D4, symSize: 0x6B8 }
...
